
/home/xavier/Documents/UniSherbrooke/FinDeBack/Buzz_particle_argon/argon/target/1.5.1/argon/argon.elf:     file format elf32-littlearm

Sections:
Idx Name          Size      VMA       LMA       File off  Algn
  0 .module_info  00000018  000d4000  000d4000  00004000  2**2
                  CONTENTS, ALLOC, LOAD, READONLY, DATA
  1 .dynalib      00000004  000d4018  000d4018  00004018  2**2
                  CONTENTS, ALLOC, LOAD, READONLY, DATA
  2 .text         00001d24  000d401c  000d401c  0000401c  2**2
                  CONTENTS, ALLOC, LOAD, READONLY, CODE
  3 .backup       00000004  2003f400  000d5d40  0000f400  2**2
                  CONTENTS, ALLOC, LOAD, DATA
  4 .data         00000068  2003dd24  000d5d44  0001dd24  2**2
                  CONTENTS, ALLOC, LOAD, DATA
  5 .bss          00000a64  2003dd8c  2003dd8c  0002dd8c  2**2
                  ALLOC
  6 .module_info_suffix 00000028  000d5dac  000d5dac  00025dac  2**0
                  CONTENTS, ALLOC, LOAD, READONLY, DATA
  7 .module_info_crc 00000004  000d5dd4  000d5dd4  00025dd4  2**0
                  CONTENTS, ALLOC, LOAD, READONLY, DATA
  8 .debug_info   000bdefa  00000000  00000000  00025dd8  2**0
                  CONTENTS, READONLY, DEBUGGING
  9 .debug_abbrev 0000f2f5  00000000  00000000  000e3cd2  2**0
                  CONTENTS, READONLY, DEBUGGING
 10 .debug_aranges 000021c8  00000000  00000000  000f2fc7  2**0
                  CONTENTS, READONLY, DEBUGGING
 11 .debug_macro  000326f6  00000000  00000000  000f518f  2**0
                  CONTENTS, READONLY, DEBUGGING
 12 .debug_line   00025601  00000000  00000000  00127885  2**0
                  CONTENTS, READONLY, DEBUGGING
 13 .debug_str    001019ab  00000000  00000000  0014ce86  2**0
                  CONTENTS, READONLY, DEBUGGING
 14 .debug_loc    0001b41d  00000000  00000000  0024e831  2**0
                  CONTENTS, READONLY, DEBUGGING
 15 .debug_ranges 00003f98  00000000  00000000  00269c4e  2**0
                  CONTENTS, READONLY, DEBUGGING
 16 .debug_frame  0000c42c  00000000  00000000  0026dbe8  2**2
                  CONTENTS, READONLY, DEBUGGING

Disassembly of section .text:

000d401c <module_user_pre_init>:
/**
 * Initializes this user module. Returns the start of the heap.
 */
void* module_user_pre_init() {

    if ( (&link_global_data_start!=&link_global_data_initial_values) && (link_global_data_size != 0))
   d401c:	4809      	ldr	r0, [pc, #36]	; (d4044 <link_dynalib_end+0x28>)
   d401e:	490a      	ldr	r1, [pc, #40]	; (d4048 <link_dynalib_end+0x2c>)
   d4020:	4288      	cmp	r0, r1
extern constructor_ptr_t link_constructors_end;

/**
 * Initializes this user module. Returns the start of the heap.
 */
void* module_user_pre_init() {
   d4022:	b508      	push	{r3, lr}

    if ( (&link_global_data_start!=&link_global_data_initial_values) && (link_global_data_size != 0))
   d4024:	d005      	beq.n	d4032 <module_user_pre_init+0x16>
   d4026:	4a09      	ldr	r2, [pc, #36]	; (d404c <link_dynalib_end+0x30>)
   d4028:	4282      	cmp	r2, r0
   d402a:	d002      	beq.n	d4032 <module_user_pre_init+0x16>
    {
        memcpy(&link_global_data_start, &link_global_data_initial_values, link_global_data_size);
   d402c:	1a12      	subs	r2, r2, r0
   d402e:	f001 fc8d 	bl	d594c <memcpy>
    }

    memset(&link_bss_location, 0, link_bss_size );
   d4032:	4807      	ldr	r0, [pc, #28]	; (d4050 <link_dynalib_end+0x34>)
   d4034:	4a07      	ldr	r2, [pc, #28]	; (d4054 <link_dynalib_end+0x38>)
   d4036:	2100      	movs	r1, #0
   d4038:	1a12      	subs	r2, r2, r0
   d403a:	f001 fc92 	bl	d5962 <memset>
    return &link_global_data_start;
}
   d403e:	4801      	ldr	r0, [pc, #4]	; (d4044 <link_dynalib_end+0x28>)
   d4040:	bd08      	pop	{r3, pc}
   d4042:	bf00      	nop
   d4044:	2003dd24 	.word	0x2003dd24
   d4048:	000d5d44 	.word	0x000d5d44
   d404c:	2003dd8c 	.word	0x2003dd8c
   d4050:	2003dd8c 	.word	0x2003dd8c
   d4054:	2003e7f0 	.word	0x2003e7f0

000d4058 <module_user_init>:
extern constructor_ptr_t link_constructors_location[];
extern constructor_ptr_t link_constructors_end;
#define link_constructors_size   ((unsigned long)&link_constructors_end  -  (unsigned long)&link_constructors_location )

void module_user_init()
{
   d4058:	b570      	push	{r4, r5, r6, lr}
    module_user_init_hook();
   d405a:	f001 f9af 	bl	d53bc <module_user_init_hook>
   d405e:	4c07      	ldr	r4, [pc, #28]	; (d407c <module_user_init+0x24>)
   d4060:	4b07      	ldr	r3, [pc, #28]	; (d4080 <module_user_init+0x28>)
   d4062:	1ae4      	subs	r4, r4, r3
   d4064:	08a4      	lsrs	r4, r4, #2

    // invoke constructors
    int ctor_num;
    for (ctor_num=0; ctor_num < link_constructors_size/sizeof(constructor_ptr_t); ctor_num++ )
   d4066:	2500      	movs	r5, #0
   d4068:	461e      	mov	r6, r3
   d406a:	42a5      	cmp	r5, r4
   d406c:	d004      	beq.n	d4078 <module_user_init+0x20>
    {
        link_constructors_location[ctor_num]();
   d406e:	f856 3025 	ldr.w	r3, [r6, r5, lsl #2]
   d4072:	4798      	blx	r3
{
    module_user_init_hook();

    // invoke constructors
    int ctor_num;
    for (ctor_num=0; ctor_num < link_constructors_size/sizeof(constructor_ptr_t); ctor_num++ )
   d4074:	3501      	adds	r5, #1
   d4076:	e7f8      	b.n	d406a <module_user_init+0x12>
    {
        link_constructors_location[ctor_num]();
    }
}
   d4078:	bd70      	pop	{r4, r5, r6, pc}
   d407a:	bf00      	nop
   d407c:	000d5d38 	.word	0x000d5d38
   d4080:	000d5cf8 	.word	0x000d5cf8

000d4084 <module_user_setup>:

/**
 * Export these functions with a fuller name so they don't clash with the setup/loop wrappers in the system module.
 */
void module_user_setup() {
    setup();
   d4084:	f000 bc74 	b.w	d4970 <setup>

000d4088 <module_user_loop>:
}

void module_user_loop() {
   d4088:	b508      	push	{r3, lr}
    loop();
   d408a:	f000 fc9d 	bl	d49c8 <loop>
    _post_loop();
}
   d408e:	e8bd 4008 	ldmia.w	sp!, {r3, lr}
    setup();
}

void module_user_loop() {
    loop();
    _post_loop();
   d4092:	f001 b955 	b.w	d5340 <_post_loop>

000d4096 <_ZdlPv>:
   d4096:	f000 be03 	b.w	d4ca0 <free>

000d409a <_ZdaPv>:
	free(p);
}

void operator delete[](void *p)
{
	free(p);
   d409a:	f000 be01 	b.w	d4ca0 <free>

000d409e <__cxa_guard_acquire>:

/* Provide default implemenation for __cxa_guard_acquire() and
 * __cxa_guard_release(). Note: these must be revisited if a multitasking
 * OS is ported to this platform. */
__extension__ typedef int __guard __attribute__((mode (__DI__)));
int __cxa_guard_acquire(__guard *g) {return !*(char *)(g);};
   d409e:	7800      	ldrb	r0, [r0, #0]
   d40a0:	fab0 f080 	clz	r0, r0
   d40a4:	0940      	lsrs	r0, r0, #5
   d40a6:	4770      	bx	lr

000d40a8 <__cxa_guard_release>:
void __cxa_guard_release (__guard *g) {*(char *)g = 1;};
   d40a8:	2301      	movs	r3, #1
   d40aa:	7003      	strb	r3, [r0, #0]
   d40ac:	4770      	bx	lr
	...

000d40b0 <bbzdarray_destroy>:
}

/****************************************/
/****************************************/

void bbzdarray_destroy(bbzheap_idx_t d) {
   d40b0:	b570      	push	{r4, r5, r6, lr}
    bbzdarray_t* da = (bbzdarray_t*)bbzheap_obj_at(d);
   d40b2:	f000 fb51 	bl	d4758 <bbzheap_obj_at>
    uint16_t si = da->value;
    bbzheap_aseg_t* sd = bbzheap_aseg_at(si);
   d40b6:	4b10      	ldr	r3, [pc, #64]	; (d40f8 <bbzdarray_destroy+0x48>)
   d40b8:	681a      	ldr	r2, [r3, #0]
   d40ba:	f8b0 3001 	ldrh.w	r3, [r0, #1]
   d40be:	2116      	movs	r1, #22
   d40c0:	434b      	muls	r3, r1
   d40c2:	f5c3 6385 	rsb	r3, r3, #1064	; 0x428
   d40c6:	3218      	adds	r2, #24
   d40c8:	3302      	adds	r3, #2
   d40ca:	4413      	add	r3, r2
    while (1) {
        bbzheap_tseg_makeinvalid(*sd);
        if (!bbzheap_aseg_hasnext(sd)) break;
   d40cc:	f643 75ff 	movw	r5, #16383	; 0x3fff
void bbzdarray_destroy(bbzheap_idx_t d) {
    bbzdarray_t* da = (bbzdarray_t*)bbzheap_obj_at(d);
    uint16_t si = da->value;
    bbzheap_aseg_t* sd = bbzheap_aseg_at(si);
    while (1) {
        bbzheap_tseg_makeinvalid(*sd);
   d40d0:	8a9c      	ldrh	r4, [r3, #20]
   d40d2:	f3c4 060e 	ubfx	r6, r4, #0, #15
   d40d6:	829e      	strh	r6, [r3, #20]
   d40d8:	f3c4 030d 	ubfx	r3, r4, #0, #14
        if (!bbzheap_aseg_hasnext(sd)) break;
   d40dc:	42ab      	cmp	r3, r5
   d40de:	d005      	beq.n	d40ec <bbzdarray_destroy+0x3c>
        si = bbzheap_aseg_next_get(sd);
        sd = bbzheap_aseg_at(si);
   d40e0:	434b      	muls	r3, r1
   d40e2:	f5c3 6385 	rsb	r3, r3, #1064	; 0x428
   d40e6:	3302      	adds	r3, #2
   d40e8:	4413      	add	r3, r2
    }
   d40ea:	e7f1      	b.n	d40d0 <bbzdarray_destroy+0x20>
    bbzheap_obj_makeinvalid(*((bbzobj_t*)da));
   d40ec:	7803      	ldrb	r3, [r0, #0]
   d40ee:	f023 0308 	bic.w	r3, r3, #8
   d40f2:	7003      	strb	r3, [r0, #0]
   d40f4:	bd70      	pop	{r4, r5, r6, pc}
   d40f6:	bf00      	nop
   d40f8:	2003e7ec 	.word	0x2003e7ec

000d40fc <bbzdarray_get>:
/****************************************/
/****************************************/

uint8_t bbzdarray_get(bbzheap_idx_t d,
                      uint16_t idx,
                      bbzheap_idx_t* v) {
   d40fc:	b5f8      	push	{r3, r4, r5, r6, r7, lr}
   d40fe:	4607      	mov	r7, r0
   d4100:	460c      	mov	r4, r1
   d4102:	4615      	mov	r5, r2
    if (!bbztype_isdarray(*bbzheap_obj_at(d))) return 0;
   d4104:	f000 fb28 	bl	d4758 <bbzheap_obj_at>
   d4108:	7803      	ldrb	r3, [r0, #0]
   d410a:	f003 0307 	and.w	r3, r3, #7
   d410e:	2b04      	cmp	r3, #4
   d4110:	d001      	beq.n	d4116 <bbzdarray_get+0x1a>
   d4112:	2000      	movs	r0, #0
   d4114:	bdf8      	pop	{r3, r4, r5, r6, r7, pc}
   d4116:	4638      	mov	r0, r7
   d4118:	f000 fb1e 	bl	d4758 <bbzheap_obj_at>
   d411c:	7803      	ldrb	r3, [r0, #0]
   d411e:	0659      	lsls	r1, r3, #25
   d4120:	d5f7      	bpl.n	d4112 <bbzdarray_get+0x16>
    const uint16_t qot = idx / ((uint16_t)(BBZHEAP_ELEMS_PER_ASEG)),
            rem = idx % ((uint16_t)(BBZHEAP_ELEMS_PER_ASEG));
    uint16_t si = bbzheap_obj_at(d)->t.value; // Segment index
   d4122:	4638      	mov	r0, r7
   d4124:	f000 fb18 	bl	d4758 <bbzheap_obj_at>
    bbzheap_aseg_t* sd = bbzheap_aseg_at(si); // Segment data
   d4128:	4b1b      	ldr	r3, [pc, #108]	; (d4198 <bbzdarray_get+0x9c>)
   d412a:	6819      	ldr	r1, [r3, #0]
   d412c:	f8b0 3001 	ldrh.w	r3, [r0, #1]
   d4130:	2216      	movs	r2, #22
   d4132:	4353      	muls	r3, r2
   d4134:	f5c3 6385 	rsb	r3, r3, #1064	; 0x428
   d4138:	3118      	adds	r1, #24
   d413a:	3302      	adds	r3, #2
   d413c:	440b      	add	r3, r1
   d413e:	2700      	movs	r7, #0
    /* Loop to fetch the last segment */
    for (idx = 0; idx < qot && bbzheap_aseg_hasnext(sd); ++idx) {
   d4140:	f643 7cff 	movw	ip, #16383	; 0x3fff
        si = bbzheap_aseg_next_get(sd);
        sd = bbzheap_aseg_at(si);
   d4144:	4610      	mov	r0, r2

uint8_t bbzdarray_get(bbzheap_idx_t d,
                      uint16_t idx,
                      bbzheap_idx_t* v) {
    if (!bbztype_isdarray(*bbzheap_obj_at(d))) return 0;
    const uint16_t qot = idx / ((uint16_t)(BBZHEAP_ELEMS_PER_ASEG)),
   d4146:	260a      	movs	r6, #10
   d4148:	fbb4 f6f6 	udiv	r6, r4, r6
   d414c:	fa1f fe87 	uxth.w	lr, r7
            rem = idx % ((uint16_t)(BBZHEAP_ELEMS_PER_ASEG));
    uint16_t si = bbzheap_obj_at(d)->t.value; // Segment index
    bbzheap_aseg_t* sd = bbzheap_aseg_at(si); // Segment data
    /* Loop to fetch the last segment */
    for (idx = 0; idx < qot && bbzheap_aseg_hasnext(sd); ++idx) {
   d4150:	4576      	cmp	r6, lr
   d4152:	d802      	bhi.n	d415a <bbzdarray_get+0x5e>
        si = bbzheap_aseg_next_get(sd);
        sd = bbzheap_aseg_at(si);
    }
    if (idx == qot &&
   d4154:	4576      	cmp	r6, lr
   d4156:	d1dc      	bne.n	d4112 <bbzdarray_get+0x16>
   d4158:	e00d      	b.n	d4176 <bbzdarray_get+0x7a>
    const uint16_t qot = idx / ((uint16_t)(BBZHEAP_ELEMS_PER_ASEG)),
            rem = idx % ((uint16_t)(BBZHEAP_ELEMS_PER_ASEG));
    uint16_t si = bbzheap_obj_at(d)->t.value; // Segment index
    bbzheap_aseg_t* sd = bbzheap_aseg_at(si); // Segment data
    /* Loop to fetch the last segment */
    for (idx = 0; idx < qot && bbzheap_aseg_hasnext(sd); ++idx) {
   d415a:	8a9a      	ldrh	r2, [r3, #20]
   d415c:	f3c2 020d 	ubfx	r2, r2, #0, #14
   d4160:	4562      	cmp	r2, ip
   d4162:	f107 0701 	add.w	r7, r7, #1
   d4166:	d0f5      	beq.n	d4154 <bbzdarray_get+0x58>
        si = bbzheap_aseg_next_get(sd);
        sd = bbzheap_aseg_at(si);
   d4168:	fb00 f302 	mul.w	r3, r0, r2
   d416c:	f5c3 6385 	rsb	r3, r3, #1064	; 0x428
   d4170:	3302      	adds	r3, #2
   d4172:	440b      	add	r3, r1
   d4174:	e7ea      	b.n	d414c <bbzdarray_get+0x50>
    }
    if (idx == qot &&
        bbzheap_aseg_elem_isvalid(sd->values[rem])) {
   d4176:	210a      	movs	r1, #10
   d4178:	fbb4 f2f1 	udiv	r2, r4, r1
   d417c:	fb01 4412 	mls	r4, r1, r2, r4
   d4180:	b2a4      	uxth	r4, r4
   d4182:	f833 2014 	ldrh.w	r2, [r3, r4, lsl #1]
   d4186:	b293      	uxth	r3, r2
    /* Loop to fetch the last segment */
    for (idx = 0; idx < qot && bbzheap_aseg_hasnext(sd); ++idx) {
        si = bbzheap_aseg_next_get(sd);
        sd = bbzheap_aseg_at(si);
    }
    if (idx == qot &&
   d4188:	0412      	lsls	r2, r2, #16
   d418a:	d5c2      	bpl.n	d4112 <bbzdarray_get+0x16>
        bbzheap_aseg_elem_isvalid(sd->values[rem])) {
        *v = bbzheap_aseg_elem_get(sd->values[rem]);
   d418c:	f3c3 030e 	ubfx	r3, r3, #0, #15
   d4190:	802b      	strh	r3, [r5, #0]
        return 1;
   d4192:	2001      	movs	r0, #1
    }
    return 0;
}
   d4194:	bdf8      	pop	{r3, r4, r5, r6, r7, pc}
   d4196:	bf00      	nop
   d4198:	2003e7ec 	.word	0x2003e7ec

000d419c <bbzdarray_size>:
}

/****************************************/
/****************************************/

uint16_t bbzdarray_size(bbzheap_idx_t d) {
   d419c:	b570      	push	{r4, r5, r6, lr}
    uint16_t size = 0;
    uint16_t si = bbzheap_obj_at(d)->t.value; // Segment index
   d419e:	f000 fadb 	bl	d4758 <bbzheap_obj_at>
    bbzheap_aseg_t* sd = bbzheap_aseg_at(si); // Segment data
   d41a2:	4b15      	ldr	r3, [pc, #84]	; (d41f8 <bbzdarray_size+0x5c>)
   d41a4:	681a      	ldr	r2, [r3, #0]
   d41a6:	f8b0 3001 	ldrh.w	r3, [r0, #1]
   d41aa:	2116      	movs	r1, #22
   d41ac:	434b      	muls	r3, r1
   d41ae:	f5c3 6385 	rsb	r3, r3, #1064	; 0x428
   d41b2:	3218      	adds	r2, #24
   d41b4:	3302      	adds	r3, #2
   d41b6:	4413      	add	r3, r2

/****************************************/
/****************************************/

uint16_t bbzdarray_size(bbzheap_idx_t d) {
    uint16_t size = 0;
   d41b8:	2000      	movs	r0, #0
                bbzheap_aseg_next_set(sd, BBZHEAP_SEG_NO_NEXT);
                return size;
            }
            ++size;
        }
        if (!bbzheap_aseg_hasnext(sd)) break;
   d41ba:	f643 75ff 	movw	r5, #16383	; 0x3fff

/****************************************/
/****************************************/

uint16_t bbzdarray_size(bbzheap_idx_t d) {
    uint16_t size = 0;
   d41be:	2400      	movs	r4, #0
    uint16_t si = bbzheap_obj_at(d)->t.value; // Segment index
    bbzheap_aseg_t* sd = bbzheap_aseg_at(si); // Segment data
    while (1) {
        for (uint16_t i = 0; i < BBZHEAP_ELEMS_PER_ASEG; ++i) {
            if (!bbzheap_aseg_elem_isvalid(sd->values[i])) {
   d41c0:	f933 6014 	ldrsh.w	r6, [r3, r4, lsl #1]
   d41c4:	2e00      	cmp	r6, #0
   d41c6:	db06      	blt.n	d41d6 <bbzdarray_size+0x3a>
                bbzheap_aseg_next_set(sd, BBZHEAP_SEG_NO_NEXT);
   d41c8:	8a9a      	ldrh	r2, [r3, #20]
   d41ca:	ea6f 3292 	mvn.w	r2, r2, lsr #14
   d41ce:	ea6f 3282 	mvn.w	r2, r2, lsl #14
   d41d2:	829a      	strh	r2, [r3, #20]
                return size;
   d41d4:	bd70      	pop	{r4, r5, r6, pc}
   d41d6:	3401      	adds	r4, #1
            }
            ++size;
   d41d8:	3001      	adds	r0, #1
uint16_t bbzdarray_size(bbzheap_idx_t d) {
    uint16_t size = 0;
    uint16_t si = bbzheap_obj_at(d)->t.value; // Segment index
    bbzheap_aseg_t* sd = bbzheap_aseg_at(si); // Segment data
    while (1) {
        for (uint16_t i = 0; i < BBZHEAP_ELEMS_PER_ASEG; ++i) {
   d41da:	2c0a      	cmp	r4, #10
            if (!bbzheap_aseg_elem_isvalid(sd->values[i])) {
                bbzheap_aseg_next_set(sd, BBZHEAP_SEG_NO_NEXT);
                return size;
            }
            ++size;
   d41dc:	b280      	uxth	r0, r0
uint16_t bbzdarray_size(bbzheap_idx_t d) {
    uint16_t size = 0;
    uint16_t si = bbzheap_obj_at(d)->t.value; // Segment index
    bbzheap_aseg_t* sd = bbzheap_aseg_at(si); // Segment data
    while (1) {
        for (uint16_t i = 0; i < BBZHEAP_ELEMS_PER_ASEG; ++i) {
   d41de:	d1ef      	bne.n	d41c0 <bbzdarray_size+0x24>
                bbzheap_aseg_next_set(sd, BBZHEAP_SEG_NO_NEXT);
                return size;
            }
            ++size;
        }
        if (!bbzheap_aseg_hasnext(sd)) break;
   d41e0:	8a9b      	ldrh	r3, [r3, #20]
   d41e2:	f3c3 030d 	ubfx	r3, r3, #0, #14
   d41e6:	42ab      	cmp	r3, r5
   d41e8:	d005      	beq.n	d41f6 <bbzdarray_size+0x5a>
        si = bbzheap_aseg_next_get(sd);
        sd = bbzheap_aseg_at(si);
   d41ea:	434b      	muls	r3, r1
   d41ec:	f5c3 6385 	rsb	r3, r3, #1064	; 0x428
   d41f0:	3302      	adds	r3, #2
   d41f2:	4413      	add	r3, r2
    }
   d41f4:	e7e3      	b.n	d41be <bbzdarray_size+0x22>
    return size;
}
   d41f6:	bd70      	pop	{r4, r5, r6, pc}
   d41f8:	2003e7ec 	.word	0x2003e7ec

000d41fc <bbzvm_seterror>:
/****************************************/
/****************************************/

void bbzvm_seterror(bbzvm_error errcode) {
    // Set the error
    vm->state = BBZVM_STATE_ERROR;
   d41fc:	4b04      	ldr	r3, [pc, #16]	; (d4210 <bbzvm_seterror+0x14>)
   d41fe:	681b      	ldr	r3, [r3, #0]
   d4200:	2204      	movs	r2, #4
   d4202:	f883 2599 	strb.w	r2, [r3, #1433]	; 0x599
    vm->error = errcode;
   d4206:	f883 059a 	strb.w	r0, [r3, #1434]	; 0x59a
    // Call the error receiver function.
    (*vm->error_receiver_fun)(errcode);
   d420a:	681b      	ldr	r3, [r3, #0]
   d420c:	4718      	bx	r3
   d420e:	bf00      	nop
   d4210:	2003e7ec 	.word	0x2003e7ec

000d4214 <bbzclosure_new.part.5>:
}

/****************************************/
/****************************************/

bbzheap_idx_t bbzuserdata_new(void* val) {
   d4214:	b508      	push	{r3, lr}
    bbzheap_idx_t o;
    bbzvm_assert_mem_alloc(BBZTYPE_USERDATA, &o, vm->nil);
   d4216:	200d      	movs	r0, #13
   d4218:	f7ff fff0 	bl	d41fc <bbzvm_seterror>
   d421c:	4b02      	ldr	r3, [pc, #8]	; (d4228 <bbzclosure_new.part.5+0x14>)
   d421e:	681b      	ldr	r3, [r3, #0]
    bbzheap_obj_at(o)->u.value = (uintptr_t)val;
    return o;
}
   d4220:	f8b3 0458 	ldrh.w	r0, [r3, #1112]	; 0x458
   d4224:	bd08      	pop	{r3, pc}
   d4226:	bf00      	nop
   d4228:	2003e7ec 	.word	0x2003e7ec

000d422c <bbzstring_get>:
}

/****************************************/
/****************************************/

bbzheap_idx_t bbzstring_get(uint16_t val) {
   d422c:	b513      	push	{r0, r1, r4, lr}
    bbzheap_idx_t o = val;
   d422e:	a902      	add	r1, sp, #8
   d4230:	4604      	mov	r4, r0
   d4232:	f821 0d02 	strh.w	r0, [r1, #-2]!
    bbzvm_assert_mem_alloc(BBZTYPE_STRING, &o, vm->nil);
   d4236:	2003      	movs	r0, #3
   d4238:	f000 fb10 	bl	d485c <bbzheap_obj_alloc>
   d423c:	b910      	cbnz	r0, d4244 <bbzstring_get+0x18>
   d423e:	f7ff ffe9 	bl	d4214 <bbzclosure_new.part.5>
   d4242:	e007      	b.n	d4254 <bbzstring_get+0x28>
    bbzheap_obj_at(o)->s.value = val;
   d4244:	f8bd 0006 	ldrh.w	r0, [sp, #6]
   d4248:	f000 fa86 	bl	d4758 <bbzheap_obj_at>
   d424c:	f8a0 4001 	strh.w	r4, [r0, #1]
    return o;
   d4250:	f8bd 0006 	ldrh.w	r0, [sp, #6]
}
   d4254:	b002      	add	sp, #8
   d4256:	bd10      	pop	{r4, pc}

000d4258 <bbzclosure_new>:
}

/****************************************/
/****************************************/

bbzheap_idx_t bbzclosure_new(intptr_t val) {
   d4258:	b513      	push	{r0, r1, r4, lr}
   d425a:	4604      	mov	r4, r0
    bbzheap_idx_t o;
    bbzvm_assert_mem_alloc(BBZTYPE_CLOSURE, &o, vm->nil);
   d425c:	f10d 0106 	add.w	r1, sp, #6
   d4260:	2005      	movs	r0, #5
   d4262:	f000 fafb 	bl	d485c <bbzheap_obj_alloc>
   d4266:	b910      	cbnz	r0, d426e <bbzclosure_new+0x16>
   d4268:	f7ff ffd4 	bl	d4214 <bbzclosure_new.part.5>
   d426c:	e007      	b.n	d427e <bbzclosure_new+0x26>
    bbzheap_obj_at(o)->c.value = (void(*)())val;
   d426e:	f8bd 0006 	ldrh.w	r0, [sp, #6]
   d4272:	f000 fa71 	bl	d4758 <bbzheap_obj_at>
   d4276:	f8c0 4001 	str.w	r4, [r0, #1]
    return o;
   d427a:	f8bd 0006 	ldrh.w	r0, [sp, #6]
}
   d427e:	b002      	add	sp, #8
   d4280:	bd10      	pop	{r4, pc}
	...

000d4284 <bbzvm_stack_at>:
}

/****************************************/
/****************************************/

bbzheap_idx_t bbzvm_stack_at(int16_t idx) { return vm->stack[vm->stackptr - idx]; }
   d4284:	4b05      	ldr	r3, [pc, #20]	; (d429c <bbzvm_stack_at+0x18>)
   d4286:	681a      	ldr	r2, [r3, #0]
   d4288:	f9b2 359d 	ldrsh.w	r3, [r2, #1437]	; 0x59d
   d428c:	1a18      	subs	r0, r3, r0
   d428e:	f500 7034 	add.w	r0, r0, #720	; 0x2d0
   d4292:	eb02 0040 	add.w	r0, r2, r0, lsl #1
   d4296:	f8b0 0001 	ldrh.w	r0, [r0, #1]
   d429a:	4770      	bx	lr
   d429c:	2003e7ec 	.word	0x2003e7ec

000d42a0 <bbzvm_pop>:

/****************************************/
/****************************************/

void bbzvm_pop() {
    bbzvm_assert_exec(bbzvm_stack_size() > 0, BBZVM_ERROR_STACK);
   d42a0:	4b06      	ldr	r3, [pc, #24]	; (d42bc <bbzvm_pop+0x1c>)
   d42a2:	681a      	ldr	r2, [r3, #0]
   d42a4:	f9b2 359d 	ldrsh.w	r3, [r2, #1437]	; 0x59d
   d42a8:	1c59      	adds	r1, r3, #1
   d42aa:	d102      	bne.n	d42b2 <bbzvm_pop+0x12>
   d42ac:	2002      	movs	r0, #2
   d42ae:	f7ff bfa5 	b.w	d41fc <bbzvm_seterror>
    --vm->stackptr;
   d42b2:	3b01      	subs	r3, #1
   d42b4:	f8a2 359d 	strh.w	r3, [r2, #1437]	; 0x59d
   d42b8:	4770      	bx	lr
   d42ba:	bf00      	nop
   d42bc:	2003e7ec 	.word	0x2003e7ec

000d42c0 <bbzvm_push>:

/****************************************/
/****************************************/

void bbzvm_push(bbzheap_idx_t v) {
    bbzvm_assert_exec(bbzvm_stack_size() < BBZSTACK_SIZE, BBZVM_ERROR_STACK);
   d42c0:	4b08      	ldr	r3, [pc, #32]	; (d42e4 <bbzvm_push+0x24>)
   d42c2:	681a      	ldr	r2, [r3, #0]
   d42c4:	f9b2 359d 	ldrsh.w	r3, [r2, #1437]	; 0x59d
   d42c8:	3301      	adds	r3, #1
   d42ca:	b29b      	uxth	r3, r3
   d42cc:	2b5f      	cmp	r3, #95	; 0x5f
   d42ce:	d902      	bls.n	d42d6 <bbzvm_push+0x16>
   d42d0:	2002      	movs	r0, #2
   d42d2:	f7ff bf93 	b.w	d41fc <bbzvm_seterror>
    vm->stack[++vm->stackptr] = v;
   d42d6:	f8a2 359d 	strh.w	r3, [r2, #1437]	; 0x59d
   d42da:	eb02 0343 	add.w	r3, r2, r3, lsl #1
   d42de:	f8a3 05a1 	strh.w	r0, [r3, #1441]	; 0x5a1
   d42e2:	4770      	bx	lr
   d42e4:	2003e7ec 	.word	0x2003e7ec

000d42e8 <bbzvm_pushc>:
}

/****************************************/
/****************************************/

void bbzvm_pushc(intptr_t rfrnc, int16_t nat) {
   d42e8:	b538      	push	{r3, r4, r5, lr}
   d42ea:	460d      	mov	r5, r1
    bbzheap_idx_t o = bbzclosure_new(rfrnc);
   d42ec:	f7ff ffb4 	bl	d4258 <bbzclosure_new>
   d42f0:	4604      	mov	r4, r0
    if (nat) bbzclosure_make_native(*bbzheap_obj_at(o));
   d42f2:	b12d      	cbz	r5, d4300 <bbzvm_pushc+0x18>
   d42f4:	f000 fa30 	bl	d4758 <bbzheap_obj_at>
   d42f8:	7803      	ldrb	r3, [r0, #0]
   d42fa:	f043 0340 	orr.w	r3, r3, #64	; 0x40
   d42fe:	7003      	strb	r3, [r0, #0]
    return bbzvm_push(o);
   d4300:	4620      	mov	r0, r4
}
   d4302:	e8bd 4038 	ldmia.w	sp!, {r3, r4, r5, lr}
/****************************************/

void bbzvm_pushc(intptr_t rfrnc, int16_t nat) {
    bbzheap_idx_t o = bbzclosure_new(rfrnc);
    if (nat) bbzclosure_make_native(*bbzheap_obj_at(o));
    return bbzvm_push(o);
   d4306:	f7ff bfdb 	b.w	d42c0 <bbzvm_push>

000d430a <bbzvm_pushs>:
}

/****************************************/
/****************************************/

void bbzvm_pushs(uint16_t strid) {
   d430a:	b508      	push	{r3, lr}
    bbzvm_push(bbzstring_get(strid));
   d430c:	f7ff ff8e 	bl	d422c <bbzstring_get>
}
   d4310:	e8bd 4008 	ldmia.w	sp!, {r3, lr}

/****************************************/
/****************************************/

void bbzvm_pushs(uint16_t strid) {
    bbzvm_push(bbzstring_get(strid));
   d4314:	f7ff bfd4 	b.w	d42c0 <bbzvm_push>

000d4318 <bbzvm_gstore>:
}

/****************************************/
/****************************************/

void bbzvm_gstore() {
   d4318:	b570      	push	{r4, r5, r6, lr}
    // Get and pop the arguments
    bbzvm_assert_stack(2);
   d431a:	4d18      	ldr	r5, [pc, #96]	; (d437c <bbzvm_gstore+0x64>)
   d431c:	682b      	ldr	r3, [r5, #0]
   d431e:	f9b3 359d 	ldrsh.w	r3, [r3, #1437]	; 0x59d
   d4322:	3301      	adds	r3, #1
   d4324:	b29b      	uxth	r3, r3
   d4326:	2b01      	cmp	r3, #1
   d4328:	d801      	bhi.n	d432e <bbzvm_gstore+0x16>
   d432a:	2002      	movs	r0, #2
   d432c:	e021      	b.n	d4372 <bbzvm_gstore+0x5a>
    bbzheap_idx_t str = bbzvm_stack_at(1);
   d432e:	2001      	movs	r0, #1
   d4330:	f7ff ffa8 	bl	d4284 <bbzvm_stack_at>
   d4334:	4604      	mov	r4, r0
    bbzheap_idx_t o = bbzvm_stack_at(0);
   d4336:	2000      	movs	r0, #0
   d4338:	f7ff ffa4 	bl	d4284 <bbzvm_stack_at>
   d433c:	4606      	mov	r6, r0
    bbzvm_assert_type(str, BBZTYPE_STRING);
   d433e:	4620      	mov	r0, r4
   d4340:	f000 fa0a 	bl	d4758 <bbzheap_obj_at>
   d4344:	7803      	ldrb	r3, [r0, #0]
   d4346:	f003 0307 	and.w	r3, r3, #7
   d434a:	2b03      	cmp	r3, #3
   d434c:	d001      	beq.n	d4352 <bbzvm_gstore+0x3a>
   d434e:	2006      	movs	r0, #6
   d4350:	e00f      	b.n	d4372 <bbzvm_gstore+0x5a>
    bbzvm_pop();
   d4352:	f7ff ffa5 	bl	d42a0 <bbzvm_pop>
    bbzvm_pop();
   d4356:	f7ff ffa3 	bl	d42a0 <bbzvm_pop>
    bbzvm_assert_state();
   d435a:	682b      	ldr	r3, [r5, #0]
   d435c:	f893 2599 	ldrb.w	r2, [r3, #1433]	; 0x599
   d4360:	2a04      	cmp	r2, #4
   d4362:	d00a      	beq.n	d437a <bbzvm_gstore+0x62>

    // Store the value
    bbzvm_assert_exec(bbztable_set(vm->gsyms, str, o), BBZVM_ERROR_MEM);
   d4364:	4632      	mov	r2, r6
   d4366:	4621      	mov	r1, r4
   d4368:	89d8      	ldrh	r0, [r3, #14]
   d436a:	f000 f891 	bl	d4490 <bbztable_set>
   d436e:	b920      	cbnz	r0, d437a <bbzvm_gstore+0x62>
   d4370:	200d      	movs	r0, #13
}
   d4372:	e8bd 4070 	ldmia.w	sp!, {r4, r5, r6, lr}
    bbzvm_pop();
    bbzvm_pop();
    bbzvm_assert_state();

    // Store the value
    bbzvm_assert_exec(bbztable_set(vm->gsyms, str, o), BBZVM_ERROR_MEM);
   d4376:	f7ff bf41 	b.w	d41fc <bbzvm_seterror>
   d437a:	bd70      	pop	{r4, r5, r6, pc}
   d437c:	2003e7ec 	.word	0x2003e7ec

000d4380 <bbzvm_gsym_register>:
}

/****************************************/
/****************************************/

uint8_t bbzvm_gsym_register(uint16_t sid, bbzheap_idx_t v) {
   d4380:	b510      	push	{r4, lr}
   d4382:	460c      	mov	r4, r1
    bbzvm_pushs(sid);
   d4384:	f7ff ffc1 	bl	d430a <bbzvm_pushs>
    bbzvm_push(v);
   d4388:	4620      	mov	r0, r4
   d438a:	f7ff ff99 	bl	d42c0 <bbzvm_push>
    bbzvm_gstore();
   d438e:	f7ff ffc3 	bl	d4318 <bbzvm_gstore>
    bbzvm_assert_state(0);
   d4392:	4b04      	ldr	r3, [pc, #16]	; (d43a4 <bbzvm_gsym_register+0x24>)
   d4394:	681b      	ldr	r3, [r3, #0]
   d4396:	f893 0599 	ldrb.w	r0, [r3, #1433]	; 0x599
    return 1;
}
   d439a:	3804      	subs	r0, #4
   d439c:	bf18      	it	ne
   d439e:	2001      	movne	r0, #1
   d43a0:	bd10      	pop	{r4, pc}
   d43a2:	bf00      	nop
   d43a4:	2003e7ec 	.word	0x2003e7ec

000d43a8 <bbzvm_function_register>:
}

/****************************************/
/****************************************/

bbzheap_idx_t bbzvm_function_register(int16_t fnameid, bbzvm_funp funp) {
   d43a8:	b538      	push	{r3, r4, r5, lr}
   d43aa:	4605      	mov	r5, r0
   d43ac:	4608      	mov	r0, r1
     * It pops the function id and pushes the c-function closure.
     * @see BBZVM_INSTR_PUSHCC
     * @param[in] cid The closure id.
     */
    ALWAYS_INLINE
    void bbzvm_pushcc(bbzvm_funp cid) { return bbzvm_pushc((intptr_t)cid, 0); }
   d43ae:	2100      	movs	r1, #0
   d43b0:	f7ff ff9a 	bl	d42e8 <bbzvm_pushc>
    /* Allocate a bbzclosure_t */
    bbzvm_pushcc(funp);
    bbzvm_assert_state(0);
   d43b4:	4b0b      	ldr	r3, [pc, #44]	; (d43e4 <bbzvm_function_register+0x3c>)
   d43b6:	681b      	ldr	r3, [r3, #0]
   d43b8:	f893 3599 	ldrb.w	r3, [r3, #1433]	; 0x599
   d43bc:	2b04      	cmp	r3, #4
   d43be:	f04f 0000 	mov.w	r0, #0
   d43c2:	d00b      	beq.n	d43dc <bbzvm_function_register+0x34>
    /* Register the closure in the global symbols */
    bbzheap_idx_t cpos = bbzvm_stack_at(0);
   d43c4:	f7ff ff5e 	bl	d4284 <bbzvm_stack_at>
   d43c8:	4604      	mov	r4, r0
    bbzvm_pop();
   d43ca:	f7ff ff69 	bl	d42a0 <bbzvm_pop>
    if (fnameid >= 0) {
   d43ce:	2d00      	cmp	r5, #0
   d43d0:	db05      	blt.n	d43de <bbzvm_function_register+0x36>
        bbzvm_gsym_register((uint16_t)fnameid, cpos);
   d43d2:	4621      	mov	r1, r4
   d43d4:	b2a8      	uxth	r0, r5
   d43d6:	f7ff ffd3 	bl	d4380 <bbzvm_gsym_register>
   d43da:	e000      	b.n	d43de <bbzvm_function_register+0x36>
   d43dc:	bd38      	pop	{r3, r4, r5, pc}
    }
    /* Return the closure's position */
    return cpos;
   d43de:	4620      	mov	r0, r4
}
   d43e0:	bd38      	pop	{r3, r4, r5, pc}
   d43e2:	bf00      	nop
   d43e4:	2003e7ec 	.word	0x2003e7ec

000d43e8 <bbzvm_ret0>:
}

/****************************************/
/****************************************/

void bbzvm_ret0() {
   d43e8:	b538      	push	{r3, r4, r5, lr}
    /* Make sure there's enough elements on the stack */
    bbzvm_assert_stack(3);
   d43ea:	4c28      	ldr	r4, [pc, #160]	; (d448c <bbzvm_ret0+0xa4>)
   d43ec:	6825      	ldr	r5, [r4, #0]
   d43ee:	f9b5 359d 	ldrsh.w	r3, [r5, #1437]	; 0x59d
   d43f2:	3301      	adds	r3, #1
   d43f4:	b29b      	uxth	r3, r3
   d43f6:	2b02      	cmp	r3, #2
   d43f8:	d801      	bhi.n	d43fe <bbzvm_ret0+0x16>
   d43fa:	2002      	movs	r0, #2
   d43fc:	e035      	b.n	d446a <bbzvm_ret0+0x82>
    /* Pop block pointer and stack */
    vm->stackptr = vm->blockptr;
   d43fe:	f9b5 259f 	ldrsh.w	r2, [r5, #1439]	; 0x59f
   d4402:	f8a5 259d 	strh.w	r2, [r5, #1437]	; 0x59d
   d4406:	b213      	sxth	r3, r2
    vm->blockptr = bbzheap_obj_at(vm->stack[vm->stackptr])->i.value;
   d4408:	f503 7334 	add.w	r3, r3, #720	; 0x2d0
   d440c:	eb05 0343 	add.w	r3, r5, r3, lsl #1
   d4410:	f8b3 0001 	ldrh.w	r0, [r3, #1]
   d4414:	f000 f9a0 	bl	d4758 <bbzheap_obj_at>
   d4418:	f9b0 3001 	ldrsh.w	r3, [r0, #1]
   d441c:	f8a5 359f 	strh.w	r3, [r5, #1439]	; 0x59f
    bbzvm_pop();
   d4420:	f7ff ff3e 	bl	d42a0 <bbzvm_pop>
    /* Pop local symbol table */
    bbzheap_obj_unmake_permanent(*bbzheap_obj_at(vm->lsyms));
   d4424:	6823      	ldr	r3, [r4, #0]
   d4426:	8998      	ldrh	r0, [r3, #12]
   d4428:	f000 f996 	bl	d4758 <bbzheap_obj_at>
   d442c:	7803      	ldrb	r3, [r0, #0]
   d442e:	f023 0310 	bic.w	r3, r3, #16
   d4432:	7003      	strb	r3, [r0, #0]
    bbzdarray_destroy(vm->lsyms);
   d4434:	6823      	ldr	r3, [r4, #0]
   d4436:	8998      	ldrh	r0, [r3, #12]
   d4438:	f7ff fe3a 	bl	d40b0 <bbzdarray_destroy>
    vm->lsyms = bbzvm_stack_at(0);
   d443c:	2000      	movs	r0, #0
   d443e:	6821      	ldr	r1, [r4, #0]
   d4440:	f7ff ff20 	bl	d4284 <bbzvm_stack_at>
   d4444:	8188      	strh	r0, [r1, #12]
    bbzvm_pop();
   d4446:	f7ff ff2b 	bl	d42a0 <bbzvm_pop>
    /* Make sure the stack contains at least one element */
    bbzvm_assert_stack(1);
   d444a:	6823      	ldr	r3, [r4, #0]
   d444c:	f9b3 359d 	ldrsh.w	r3, [r3, #1437]	; 0x59d
   d4450:	3301      	adds	r3, #1
   d4452:	d0d2      	beq.n	d43fa <bbzvm_ret0+0x12>
    /* Make sure that element is an integer */
    bbzvm_assert_type(bbzvm_stack_at(0), BBZTYPE_INT);
   d4454:	2000      	movs	r0, #0
   d4456:	f7ff ff15 	bl	d4284 <bbzvm_stack_at>
   d445a:	f000 f97d 	bl	d4758 <bbzheap_obj_at>
   d445e:	7803      	ldrb	r3, [r0, #0]
   d4460:	f003 0307 	and.w	r3, r3, #7
   d4464:	2b01      	cmp	r3, #1
   d4466:	d004      	beq.n	d4472 <bbzvm_ret0+0x8a>
   d4468:	2006      	movs	r0, #6
    /* Use that element as program counter */
    vm->pc = (bbzpc_t)bbzheap_obj_at(bbzvm_stack_at(0))->i.value;
    /* Pop the return address */
    bbzvm_pop();
}
   d446a:	e8bd 4038 	ldmia.w	sp!, {r3, r4, r5, lr}
    vm->lsyms = bbzvm_stack_at(0);
    bbzvm_pop();
    /* Make sure the stack contains at least one element */
    bbzvm_assert_stack(1);
    /* Make sure that element is an integer */
    bbzvm_assert_type(bbzvm_stack_at(0), BBZTYPE_INT);
   d446e:	f7ff bec5 	b.w	d41fc <bbzvm_seterror>
    /* Use that element as program counter */
    vm->pc = (bbzpc_t)bbzheap_obj_at(bbzvm_stack_at(0))->i.value;
   d4472:	2000      	movs	r0, #0
   d4474:	f7ff ff06 	bl	d4284 <bbzvm_stack_at>
   d4478:	6824      	ldr	r4, [r4, #0]
   d447a:	f000 f96d 	bl	d4758 <bbzheap_obj_at>
   d447e:	f9b0 3001 	ldrsh.w	r3, [r0, #1]
   d4482:	8163      	strh	r3, [r4, #10]
    /* Pop the return address */
    bbzvm_pop();
}
   d4484:	e8bd 4038 	ldmia.w	sp!, {r3, r4, r5, lr}
    /* Make sure that element is an integer */
    bbzvm_assert_type(bbzvm_stack_at(0), BBZTYPE_INT);
    /* Use that element as program counter */
    vm->pc = (bbzpc_t)bbzheap_obj_at(bbzvm_stack_at(0))->i.value;
    /* Pop the return address */
    bbzvm_pop();
   d4488:	f7ff bf0a 	b.w	d42a0 <bbzvm_pop>
   d448c:	2003e7ec 	.word	0x2003e7ec

000d4490 <bbztable_set>:
/****************************************/
/****************************************/

uint8_t bbztable_set(bbzheap_idx_t t,
                     bbzheap_idx_t k,
                     bbzheap_idx_t v) {
   d4490:	e92d 4ff0 	stmdb	sp!, {r4, r5, r6, r7, r8, r9, sl, fp, lr}
   d4494:	b089      	sub	sp, #36	; 0x24
   d4496:	4615      	mov	r5, r2
   d4498:	4683      	mov	fp, r0
   d449a:	9102      	str	r1, [sp, #8]
    /* Search for the given key, keeping track of first free slot */
    /* Get segment index */
    int16_t si = bbzheap_obj_at(t)->t.value;
   d449c:	f000 f95c 	bl	d4758 <bbzheap_obj_at>
    /* Get segment data */
    bbzheap_tseg_t* sd = bbzheap_tseg_at(si);
   d44a0:	4e87      	ldr	r6, [pc, #540]	; (d46c0 <bbztable_set+0x230>)
uint8_t bbztable_set(bbzheap_idx_t t,
                     bbzheap_idx_t k,
                     bbzheap_idx_t v) {
    /* Search for the given key, keeping track of first free slot */
    /* Get segment index */
    int16_t si = bbzheap_obj_at(t)->t.value;
   d44a2:	f8b0 3001 	ldrh.w	r3, [r0, #1]
    /* Get segment data */
    bbzheap_tseg_t* sd = bbzheap_tseg_at(si);
   d44a6:	6834      	ldr	r4, [r6, #0]
   d44a8:	2216      	movs	r2, #22
uint8_t bbztable_set(bbzheap_idx_t t,
                     bbzheap_idx_t k,
                     bbzheap_idx_t v) {
    /* Search for the given key, keeping track of first free slot */
    /* Get segment index */
    int16_t si = bbzheap_obj_at(t)->t.value;
   d44aa:	b21f      	sxth	r7, r3
    /* Get segment data */
    bbzheap_tseg_t* sd = bbzheap_tseg_at(si);
   d44ac:	fb13 f302 	smulbb	r3, r3, r2
    /* Free segment and slot */
    int16_t fseg = -1, fslot = -1;
    /* Target segment and slot */
    int16_t seg = -1, slot = -1;
   d44b0:	f04f 38ff 	mov.w	r8, #4294967295
                     bbzheap_idx_t v) {
    /* Search for the given key, keeping track of first free slot */
    /* Get segment index */
    int16_t si = bbzheap_obj_at(t)->t.value;
    /* Get segment data */
    bbzheap_tseg_t* sd = bbzheap_tseg_at(si);
   d44b4:	1ae3      	subs	r3, r4, r3
   d44b6:	f203 4442 	addw	r4, r3, #1090	; 0x442
    /* Free segment and slot */
    int16_t fseg = -1, fslot = -1;
    /* Target segment and slot */
    int16_t seg = -1, slot = -1;
   d44ba:	46c2      	mov	sl, r8
    /* Get segment index */
    int16_t si = bbzheap_obj_at(t)->t.value;
    /* Get segment data */
    bbzheap_tseg_t* sd = bbzheap_tseg_at(si);
    /* Free segment and slot */
    int16_t fseg = -1, fslot = -1;
   d44bc:	f8cd 8004 	str.w	r8, [sp, #4]
   d44c0:	4643      	mov	r3, r8
        if (seg >= 0) break;
        /* Are we done? */
        if (!bbzheap_tseg_hasnext(sd)) break;
        /* Get next segment */
        si = bbzheap_tseg_next_get(sd);
        sd = bbzheap_tseg_at(si);
   d44c2:	9203      	str	r2, [sp, #12]
    /* Get segment index */
    int16_t si = bbzheap_obj_at(t)->t.value;
    /* Get segment data */
    bbzheap_tseg_t* sd = bbzheap_tseg_at(si);
    /* Free segment and slot */
    int16_t fseg = -1, fslot = -1;
   d44c4:	f04f 0900 	mov.w	r9, #0
    int16_t seg = -1, slot = -1;
    /* Go through segments */
    while (1) {
        /* Go through valid keys in the segment */
        for (uint8_t i = 0; i < BBZHEAP_ELEMS_PER_TSEG; ++i) {
            if (!bbzheap_tseg_elem_isvalid(sd->keys[i])) {
   d44c8:	f834 2019 	ldrh.w	r2, [r4, r9, lsl #1]
   d44cc:	b290      	uxth	r0, r2
   d44ce:	0412      	lsls	r2, r2, #16
   d44d0:	d406      	bmi.n	d44e0 <bbztable_set+0x50>
                if (fseg < 0) {
   d44d2:	2b00      	cmp	r3, #0
   d44d4:	da17      	bge.n	d4506 <bbztable_set+0x76>
                    /* First free slot found */
                    fseg = si;
                    fslot = i;
   d44d6:	fa0f f389 	sxth.w	r3, r9
   d44da:	9301      	str	r3, [sp, #4]
   d44dc:	463b      	mov	r3, r7
   d44de:	e012      	b.n	d4506 <bbztable_set+0x76>
                }
            }
            else if (bbztype_cmp(bbzheap_obj_at(bbzheap_tseg_elem_get(sd->keys[i])),
   d44e0:	f3c0 000e 	ubfx	r0, r0, #0, #15
   d44e4:	9305      	str	r3, [sp, #20]
   d44e6:	f000 f937 	bl	d4758 <bbzheap_obj_at>
   d44ea:	9004      	str	r0, [sp, #16]
                                bbzheap_obj_at(k)) == 0) {
   d44ec:	9802      	ldr	r0, [sp, #8]
   d44ee:	f000 f933 	bl	d4758 <bbzheap_obj_at>
                    /* First free slot found */
                    fseg = si;
                    fslot = i;
                }
            }
            else if (bbztype_cmp(bbzheap_obj_at(bbzheap_tseg_elem_get(sd->keys[i])),
   d44f2:	9a04      	ldr	r2, [sp, #16]
   d44f4:	4601      	mov	r1, r0
   d44f6:	4610      	mov	r0, r2
   d44f8:	f000 f8e4 	bl	d46c4 <bbztype_cmp>
   d44fc:	9b05      	ldr	r3, [sp, #20]
   d44fe:	b910      	cbnz	r0, d4506 <bbztable_set+0x76>
                                bbzheap_obj_at(k)) == 0) {
                /* Key found */
                seg = si;
                slot = i;
   d4500:	fa0f f889 	sxth.w	r8, r9
   d4504:	46ba      	mov	sl, r7
   d4506:	f109 0901 	add.w	r9, r9, #1
    /* Target segment and slot */
    int16_t seg = -1, slot = -1;
    /* Go through segments */
    while (1) {
        /* Go through valid keys in the segment */
        for (uint8_t i = 0; i < BBZHEAP_ELEMS_PER_TSEG; ++i) {
   d450a:	f1b9 0f05 	cmp.w	r9, #5
   d450e:	d1db      	bne.n	d44c8 <bbztable_set+0x38>
                seg = si;
                slot = i;
            }
        }
        /* Did we find the key? */
        if (seg >= 0) break;
   d4510:	f1ba 0f00 	cmp.w	sl, #0
   d4514:	da5d      	bge.n	d45d2 <bbztable_set+0x142>
        /* Are we done? */
        if (!bbzheap_tseg_hasnext(sd)) break;
   d4516:	8aa7      	ldrh	r7, [r4, #20]
   d4518:	f643 71ff 	movw	r1, #16383	; 0x3fff
   d451c:	f3c7 020d 	ubfx	r2, r7, #0, #14
   d4520:	428a      	cmp	r2, r1
   d4522:	d007      	beq.n	d4534 <bbztable_set+0xa4>
        /* Get next segment */
        si = bbzheap_tseg_next_get(sd);
   d4524:	4617      	mov	r7, r2
        sd = bbzheap_tseg_at(si);
   d4526:	6834      	ldr	r4, [r6, #0]
   d4528:	9a03      	ldr	r2, [sp, #12]
   d452a:	fb07 4412 	mls	r4, r7, r2, r4
   d452e:	f204 4442 	addw	r4, r4, #1090	; 0x442
    }
   d4532:	e7c7      	b.n	d44c4 <bbztable_set+0x34>
                sd->mdata = 0;
            }
        }
    }
    /* Ignore setting nil on new elements */
    else if(!bbztype_isnil(*bbzheap_obj_at(v))) {
   d4534:	4628      	mov	r0, r5
   d4536:	9303      	str	r3, [sp, #12]
   d4538:	f000 f90e 	bl	d4758 <bbzheap_obj_at>
   d453c:	7802      	ldrb	r2, [r0, #0]
   d453e:	9b03      	ldr	r3, [sp, #12]
   d4540:	f012 0f07 	tst.w	r2, #7
   d4544:	d043      	beq.n	d45ce <bbztable_set+0x13e>
        if(fseg >= 0) {
   d4546:	2b00      	cmp	r3, #0
   d4548:	db1b      	blt.n	d4582 <bbztable_set+0xf2>
            /* 2. We did not find the key, and found an empty slot */
            bbzheap_tseg_elem_set(bbzheap_tseg_at(fseg)->keys[fslot], k);
   d454a:	2216      	movs	r2, #22
   d454c:	fb13 f302 	smulbb	r3, r3, r2
   d4550:	f5c3 6385 	rsb	r3, r3, #1064	; 0x428
   d4554:	6832      	ldr	r2, [r6, #0]
   d4556:	9901      	ldr	r1, [sp, #4]
   d4558:	3302      	adds	r3, #2
   d455a:	441a      	add	r2, r3
   d455c:	eb02 0241 	add.w	r2, r2, r1, lsl #1
   d4560:	9902      	ldr	r1, [sp, #8]
   d4562:	ea6f 4141 	mvn.w	r1, r1, lsl #17
   d4566:	ea6f 4151 	mvn.w	r1, r1, lsr #17
   d456a:	8311      	strh	r1, [r2, #24]
            bbzheap_tseg_elem_set(bbzheap_tseg_at(fseg)->values[fslot], v);
   d456c:	6832      	ldr	r2, [r6, #0]
   d456e:	4413      	add	r3, r2
   d4570:	9a01      	ldr	r2, [sp, #4]
   d4572:	ea6f 4545 	mvn.w	r5, r5, lsl #17
   d4576:	eb03 0342 	add.w	r3, r3, r2, lsl #1
   d457a:	ea6f 4555 	mvn.w	r5, r5, lsr #17
   d457e:	845d      	strh	r5, [r3, #34]	; 0x22
   d4580:	e025      	b.n	d45ce <bbztable_set+0x13e>
        }
        else {
            /* 3. We did not find the key, nor an empty slot */
            /* Create a new segment */
            uint16_t s;
            if(!bbzheap_tseg_alloc(&s)) return 0;
   d4582:	f10d 001e 	add.w	r0, sp, #30
   d4586:	f000 f8f1 	bl	d476c <bbzheap_tseg_alloc>
   d458a:	2800      	cmp	r0, #0
   d458c:	f000 8094 	beq.w	d46b8 <bbztable_set+0x228>
            bbzheap_tseg_next_set(sd, s);
   d4590:	8aa2      	ldrh	r2, [r4, #20]
   d4592:	f8bd 301e 	ldrh.w	r3, [sp, #30]
   d4596:	f402 4140 	and.w	r1, r2, #49152	; 0xc000
   d459a:	f3c3 020d 	ubfx	r2, r3, #0, #14
   d459e:	430a      	orrs	r2, r1
   d45a0:	82a2      	strh	r2, [r4, #20]
            /* Set key and value */
            bbzheap_tseg_elem_set(bbzheap_tseg_at(s)->keys[0], k);
   d45a2:	6832      	ldr	r2, [r6, #0]
   d45a4:	2116      	movs	r1, #22
   d45a6:	fb01 2313 	mls	r3, r1, r3, r2
   d45aa:	9a02      	ldr	r2, [sp, #8]
   d45ac:	ea6f 4242 	mvn.w	r2, r2, lsl #17
   d45b0:	ea6f 4252 	mvn.w	r2, r2, lsr #17
   d45b4:	f8a3 2442 	strh.w	r2, [r3, #1090]	; 0x442
            bbzheap_tseg_elem_set(bbzheap_tseg_at(s)->values[0], v);
   d45b8:	f8bd 201e 	ldrh.w	r2, [sp, #30]
   d45bc:	6833      	ldr	r3, [r6, #0]
   d45be:	ea6f 4545 	mvn.w	r5, r5, lsl #17
   d45c2:	fb01 3312 	mls	r3, r1, r2, r3
   d45c6:	ea6f 4555 	mvn.w	r5, r5, lsr #17
   d45ca:	f8a3 544c 	strh.w	r5, [r3, #1100]	; 0x44c
        }
    }
    /* Success */
    return 1;
   d45ce:	2001      	movs	r0, #1
   d45d0:	e072      	b.n	d46b8 <bbztable_set+0x228>
        * Also, sd points to the last segment visited, and si is its index.
        */
    if(seg >= 0) {
        /* 1. We found the key, change associated value */
        /* NOTE: Setting a value to nil is equivalent to erasing the element from the table */
        if(!bbztype_isnil(*bbzheap_obj_at(v)))
   d45d2:	4628      	mov	r0, r5
   d45d4:	f000 f8c0 	bl	d4758 <bbzheap_obj_at>
   d45d8:	7802      	ldrb	r2, [r0, #0]
   d45da:	f002 0207 	and.w	r2, r2, #7
   d45de:	f002 00ff 	and.w	r0, r2, #255	; 0xff
   d45e2:	2316      	movs	r3, #22
   d45e4:	f108 0104 	add.w	r1, r8, #4
   d45e8:	b17a      	cbz	r2, d460a <bbztable_set+0x17a>
            bbzheap_tseg_elem_set(bbzheap_tseg_at(seg)->values[slot], v);
   d45ea:	fb1a fa03 	smulbb	sl, sl, r3
   d45ee:	f5ca 6a85 	rsb	sl, sl, #1064	; 0x428
   d45f2:	6833      	ldr	r3, [r6, #0]
   d45f4:	f10a 0a02 	add.w	sl, sl, #2
   d45f8:	449a      	add	sl, r3
   d45fa:	eb0a 0141 	add.w	r1, sl, r1, lsl #1
   d45fe:	ea6f 4545 	mvn.w	r5, r5, lsl #17
   d4602:	ea6f 4555 	mvn.w	r5, r5, lsr #17
   d4606:	834d      	strh	r5, [r1, #26]
   d4608:	e7e1      	b.n	d45ce <bbztable_set+0x13e>
        else {
            /* Setting nil, erase element */
            bbzheap_tseg_at(seg)->keys[slot] = 0;
   d460a:	fb1a fa03 	smulbb	sl, sl, r3
   d460e:	f5ca 6a85 	rsb	sl, sl, #1064	; 0x428
   d4612:	6833      	ldr	r3, [r6, #0]
   d4614:	f10a 0a02 	add.w	sl, sl, #2
   d4618:	4453      	add	r3, sl
   d461a:	eb03 0848 	add.w	r8, r3, r8, lsl #1
   d461e:	f888 2018 	strb.w	r2, [r8, #24]
   d4622:	f888 2019 	strb.w	r2, [r8, #25]
            bbzheap_tseg_at(seg)->values[slot] = 0;
   d4626:	6833      	ldr	r3, [r6, #0]
   d4628:	449a      	add	sl, r3
   d462a:	eb0a 0141 	add.w	r1, sl, r1, lsl #1
   d462e:	768a      	strb	r2, [r1, #26]
   d4630:	76ca      	strb	r2, [r1, #27]
            /* Is segment empty? */
            for(uint8_t i = 0; i < BBZHEAP_ELEMS_PER_TSEG; ++i) {
                if(bbzheap_tseg_elem_isvalid(sd->keys[i])) return 1;
   d4632:	f934 3010 	ldrsh.w	r3, [r4, r0, lsl #1]
   d4636:	2b00      	cmp	r3, #0
   d4638:	dbc9      	blt.n	d45ce <bbztable_set+0x13e>
   d463a:	3001      	adds	r0, #1
        else {
            /* Setting nil, erase element */
            bbzheap_tseg_at(seg)->keys[slot] = 0;
            bbzheap_tseg_at(seg)->values[slot] = 0;
            /* Is segment empty? */
            for(uint8_t i = 0; i < BBZHEAP_ELEMS_PER_TSEG; ++i) {
   d463c:	2805      	cmp	r0, #5
   d463e:	d1f8      	bne.n	d4632 <bbztable_set+0x1a2>
                if(bbzheap_tseg_elem_isvalid(sd->keys[i])) return 1;
            }
            /* If we get here, it's because the segment is empty */
            /* Is it the first segment? */
            if(si == bbzheap_obj_at(t)->t.value) {
   d4640:	4658      	mov	r0, fp
   d4642:	f000 f889 	bl	d4758 <bbzheap_obj_at>
   d4646:	f8b0 3001 	ldrh.w	r3, [r0, #1]
   d464a:	429f      	cmp	r7, r3
   d464c:	d10f      	bne.n	d466e <bbztable_set+0x1de>
                /* Yes; is it the only segment for this table? */
                if(bbzheap_tseg_hasnext(sd)) {
   d464e:	8aa3      	ldrh	r3, [r4, #20]
   d4650:	f643 72ff 	movw	r2, #16383	; 0x3fff
   d4654:	f3c3 030d 	ubfx	r3, r3, #0, #14
   d4658:	4293      	cmp	r3, r2
   d465a:	d0b8      	beq.n	d45ce <bbztable_set+0x13e>
                    /* No, there's more segments */
                    /* Update the table segment index */
                    bbzheap_obj_at(t)->t.value = bbzheap_tseg_next_get(sd);
   d465c:	4658      	mov	r0, fp
   d465e:	f000 f87b 	bl	d4758 <bbzheap_obj_at>
   d4662:	8aa3      	ldrh	r3, [r4, #20]
   d4664:	f3c3 030d 	ubfx	r3, r3, #0, #14
   d4668:	f8a0 3001 	strh.w	r3, [r0, #1]
   d466c:	e020      	b.n	d46b0 <bbztable_set+0x220>
                }
            }
            else {
                /* No, the segment is not the first */
                /* Find the preceding segment */
                uint16_t pi = bbzheap_obj_at(t)->t.value;
   d466e:	4658      	mov	r0, fp
   d4670:	f000 f872 	bl	d4758 <bbzheap_obj_at>
                bbzheap_tseg_t* pd = bbzheap_tseg_at(pi);
   d4674:	f8b0 3001 	ldrh.w	r3, [r0, #1]
   d4678:	6835      	ldr	r5, [r6, #0]
   d467a:	2216      	movs	r2, #22
   d467c:	4353      	muls	r3, r2
   d467e:	f5c3 6385 	rsb	r3, r3, #1064	; 0x428
   d4682:	3518      	adds	r5, #24
   d4684:	3302      	adds	r3, #2
   d4686:	442b      	add	r3, r5
                while(bbzheap_tseg_next_get(pd) != si) {
                    pi = bbzheap_tseg_next_get(pd);
                    pd = bbzheap_tseg_at(pi);
   d4688:	4610      	mov	r0, r2
            else {
                /* No, the segment is not the first */
                /* Find the preceding segment */
                uint16_t pi = bbzheap_obj_at(t)->t.value;
                bbzheap_tseg_t* pd = bbzheap_tseg_at(pi);
                while(bbzheap_tseg_next_get(pd) != si) {
   d468a:	8a99      	ldrh	r1, [r3, #20]
   d468c:	f3c1 020d 	ubfx	r2, r1, #0, #14
   d4690:	4297      	cmp	r7, r2
   d4692:	d006      	beq.n	d46a2 <bbztable_set+0x212>
                    pi = bbzheap_tseg_next_get(pd);
                    pd = bbzheap_tseg_at(pi);
   d4694:	fb00 f302 	mul.w	r3, r0, r2
   d4698:	f5c3 6385 	rsb	r3, r3, #1064	; 0x428
   d469c:	3302      	adds	r3, #2
   d469e:	442b      	add	r3, r5
   d46a0:	e7f3      	b.n	d468a <bbztable_set+0x1fa>
                }
                /* Set the next of the preceding to the next of current */
                bbzheap_tseg_next_set(pd, bbzheap_tseg_next_get(sd));
   d46a2:	8aa2      	ldrh	r2, [r4, #20]
   d46a4:	f401 4140 	and.w	r1, r1, #49152	; 0xc000
   d46a8:	f3c2 020d 	ubfx	r2, r2, #0, #14
   d46ac:	4311      	orrs	r1, r2
   d46ae:	8299      	strh	r1, [r3, #20]
                /* Invalidate the current segment */
                sd->mdata = 0;
   d46b0:	2300      	movs	r3, #0
   d46b2:	7523      	strb	r3, [r4, #20]
   d46b4:	7563      	strb	r3, [r4, #21]
   d46b6:	e78a      	b.n	d45ce <bbztable_set+0x13e>
            bbzheap_tseg_elem_set(bbzheap_tseg_at(s)->values[0], v);
        }
    }
    /* Success */
    return 1;
}
   d46b8:	b009      	add	sp, #36	; 0x24
   d46ba:	e8bd 8ff0 	ldmia.w	sp!, {r4, r5, r6, r7, r8, r9, sl, fp, pc}
   d46be:	bf00      	nop
   d46c0:	2003e7ec 	.word	0x2003e7ec

000d46c4 <bbztype_cmp>:

/****************************************/
/****************************************/

int8_t bbztype_cmp(const bbzobj_t* a,
                   const bbzobj_t* b) {
   d46c4:	7802      	ldrb	r2, [r0, #0]
   d46c6:	780b      	ldrb	r3, [r1, #0]
    /* nil is smaller than anything, and equal to itself */
    if(bbztype_isnil(*a)) {
   d46c8:	f012 0207 	ands.w	r2, r2, #7
   d46cc:	d105      	bne.n	d46da <bbztype_cmp+0x16>
        if(bbztype_isnil(*b)) return 0;
   d46ce:	f013 0307 	ands.w	r3, r3, #7
   d46d2:	bf18      	it	ne
   d46d4:	2301      	movne	r3, #1
   d46d6:	4258      	negs	r0, r3
   d46d8:	4770      	bx	lr
        else return -1;
    }
    if(bbztype_isnil(*b)) return 1;
   d46da:	f013 0307 	ands.w	r3, r3, #7
   d46de:	d033      	beq.n	d4748 <bbztype_cmp+0x84>
    /* If both operands are integer, perform integer comparison */
    if(bbztype_isint(*a) && bbztype_isint(*b)) {
   d46e0:	2a01      	cmp	r2, #1
   d46e2:	d10b      	bne.n	d46fc <bbztype_cmp+0x38>
   d46e4:	2b01      	cmp	r3, #1
   d46e6:	d131      	bne.n	d474c <bbztype_cmp+0x88>
        if(a->i.value < b->i.value) return -1;
   d46e8:	f9b0 2001 	ldrsh.w	r2, [r0, #1]
   d46ec:	f9b1 3001 	ldrsh.w	r3, [r1, #1]
   d46f0:	429a      	cmp	r2, r3
   d46f2:	db2d      	blt.n	d4750 <bbztype_cmp+0x8c>

int8_t bbztype_cmp(const bbzobj_t* a,
                   const bbzobj_t* b) {
    /* nil is smaller than anything, and equal to itself */
    if(bbztype_isnil(*a)) {
        if(bbztype_isnil(*b)) return 0;
   d46f4:	bfcc      	ite	gt
   d46f6:	2001      	movgt	r0, #1
   d46f8:	2000      	movle	r0, #0
   d46fa:	e010      	b.n	d471e <bbztype_cmp+0x5a>
        if(x < y) return -1;
        if(x > y) return  1;
        return 0;
    }
#else
    if(bbztype_isfloat(*a) || bbztype_isfloat(*b)) {
   d46fc:	2a02      	cmp	r2, #2
   d46fe:	d005      	beq.n	d470c <bbztype_cmp+0x48>
   d4700:	2b02      	cmp	r3, #2
   d4702:	d003      	beq.n	d470c <bbztype_cmp+0x48>
        if(a->f.value > b->f.value) return  1;
        return 0;
    }
#endif
    /* If operands are strings, perform equality comparison */
    if(bbztype_isstring(*a) && bbztype_isstring(*b)) {
   d4704:	2a03      	cmp	r2, #3
   d4706:	d10c      	bne.n	d4722 <bbztype_cmp+0x5e>
   d4708:	2b03      	cmp	r3, #3
        if(x < y) return -1;
        if(x > y) return  1;
        return 0;
    }
#else
    if(bbztype_isfloat(*a) || bbztype_isfloat(*b)) {
   d470a:	d121      	bne.n	d4750 <bbztype_cmp+0x8c>
        if(x < y) return -1;
        if(x > y) return  1;
        return 0;
    }
    if (bbztype_istable(*a) && bbztype_istable(*b)) {
        uint16_t x = a->t.value;
   d470c:	f8b0 2001 	ldrh.w	r2, [r0, #1]
        uint16_t y = b->t.value;
   d4710:	f8b1 3001 	ldrh.w	r3, [r1, #1]
        if(x < y) return -1;
   d4714:	429a      	cmp	r2, r3
   d4716:	d31b      	bcc.n	d4750 <bbztype_cmp+0x8c>

int8_t bbztype_cmp(const bbzobj_t* a,
                   const bbzobj_t* b) {
    /* nil is smaller than anything, and equal to itself */
    if(bbztype_isnil(*a)) {
        if(bbztype_isnil(*b)) return 0;
   d4718:	bf8c      	ite	hi
   d471a:	2001      	movhi	r0, #1
   d471c:	2000      	movls	r0, #0
   d471e:	b240      	sxtb	r0, r0
   d4720:	4770      	bx	lr
        uint16_t y = b->s.value;
        if(x < y) return -1;
        if(x > y) return  1;
        return 0;
    }
    if (bbztype_istable(*a) && bbztype_istable(*b)) {
   d4722:	2a04      	cmp	r2, #4
   d4724:	d101      	bne.n	d472a <bbztype_cmp+0x66>
   d4726:	2b04      	cmp	r3, #4
   d4728:	e7ef      	b.n	d470a <bbztype_cmp+0x46>
        uint16_t y = b->t.value;
        if(x < y) return -1;
        if(x > y) return  1;
        return 0;
    }
    if(bbztype_isuserdata(*a) && bbztype_isuserdata(*b)) {
   d472a:	2a06      	cmp	r2, #6
   d472c:	d110      	bne.n	d4750 <bbztype_cmp+0x8c>
   d472e:	2b06      	cmp	r3, #6
   d4730:	d10e      	bne.n	d4750 <bbztype_cmp+0x8c>
        uintptr_t x = a->u.value;
   d4732:	f8d0 3001 	ldr.w	r3, [r0, #1]
        uintptr_t y = b->u.value;
   d4736:	f8d1 0001 	ldr.w	r0, [r1, #1]
        if(x < y) return -1;
   d473a:	4283      	cmp	r3, r0
   d473c:	d308      	bcc.n	d4750 <bbztype_cmp+0x8c>

int8_t bbztype_cmp(const bbzobj_t* a,
                   const bbzobj_t* b) {
    /* nil is smaller than anything, and equal to itself */
    if(bbztype_isnil(*a)) {
        if(bbztype_isnil(*b)) return 0;
   d473e:	4283      	cmp	r3, r0
   d4740:	bf94      	ite	ls
   d4742:	2000      	movls	r0, #0
   d4744:	2001      	movhi	r0, #1
   d4746:	4770      	bx	lr
        else return -1;
    }
    if(bbztype_isnil(*b)) return 1;
   d4748:	2001      	movs	r0, #1
   d474a:	4770      	bx	lr
        if(x < y) return -1;
        if(x > y) return  1;
        return 0;
    }
#else
    if(bbztype_isfloat(*a) || bbztype_isfloat(*b)) {
   d474c:	2b02      	cmp	r3, #2
   d474e:	e7dc      	b.n	d470a <bbztype_cmp+0x46>
        else return -1;
    }
    if(bbztype_isnil(*b)) return 1;
    /* If both operands are integer, perform integer comparison */
    if(bbztype_isint(*a) && bbztype_isint(*b)) {
        if(a->i.value < b->i.value) return -1;
   d4750:	f04f 30ff 	mov.w	r0, #4294967295
        if(x < y) return -1;
        if(x > y) return  1;
        return 0;
    }
    return -1;
}
   d4754:	4770      	bx	lr
	...

000d4758 <bbzheap_obj_at>:

/****************************************/
/****************************************/

bbzobj_t* bbzheap_obj_at(bbzheap_idx_t i) {
    return (bbzobj_t*)vm->heap.data + i;
   d4758:	4b03      	ldr	r3, [pc, #12]	; (d4768 <bbzheap_obj_at+0x10>)
   d475a:	681b      	ldr	r3, [r3, #0]
   d475c:	eb00 0080 	add.w	r0, r0, r0, lsl #2
   d4760:	3318      	adds	r3, #24
}
   d4762:	4418      	add	r0, r3
   d4764:	4770      	bx	lr
   d4766:	bf00      	nop
   d4768:	2003e7ec 	.word	0x2003e7ec

000d476c <bbzheap_tseg_alloc>:
    }
    /* Success */
    return 1;
}

uint8_t bbzheap_tseg_alloc(bbzheap_idx_t* s) {
   d476c:	e92d 43f0 	stmdb	sp!, {r4, r5, r6, r7, r8, r9, lr}
    /* Look for empty slot */
    int16_t qot = (int16_t)(vm->heap.data + BBZHEAP_SIZE - vm->heap.ltseg) / sizeof(bbzheap_tseg_t);
   d4770:	492e      	ldr	r1, [pc, #184]	; (d482c <bbzheap_tseg_alloc+0xc0>)
   d4772:	680f      	ldr	r7, [r1, #0]
   d4774:	697e      	ldr	r6, [r7, #20]
   d4776:	f507 638b 	add.w	r3, r7, #1112	; 0x458
   d477a:	1b9b      	subs	r3, r3, r6
   d477c:	b21b      	sxth	r3, r3
   d477e:	2216      	movs	r2, #22
   d4780:	f207 4542 	addw	r5, r7, #1090	; 0x442
   d4784:	fbb3 f3f2 	udiv	r3, r3, r2
    for(int16_t i = 0;
   d4788:	2400      	movs	r4, #0
    return 1;
}

uint8_t bbzheap_tseg_alloc(bbzheap_idx_t* s) {
    /* Look for empty slot */
    int16_t qot = (int16_t)(vm->heap.data + BBZHEAP_SIZE - vm->heap.ltseg) / sizeof(bbzheap_tseg_t);
   d478a:	fa0f fe83 	sxth.w	lr, r3
   d478e:	f06f 0c15 	mvn.w	ip, #21
    for(int16_t i = 0;
   d4792:	b222      	sxth	r2, r4
   d4794:	4572      	cmp	r2, lr
   d4796:	da25      	bge.n	d47e4 <bbzheap_tseg_alloc+0x78>
        i < qot;
        ++i) {
        if(!bbzheap_tseg_isvalid(*bbzheap_tseg_at(i))) {
   d4798:	f9b5 9014 	ldrsh.w	r9, [r5, #20]
   d479c:	fb0c f204 	mul.w	r2, ip, r4
   d47a0:	f1b9 0f00 	cmp.w	r9, #0
   d47a4:	f202 422a 	addw	r2, r2, #1066	; 0x42a
   d47a8:	f104 0801 	add.w	r8, r4, #1
   d47ac:	f1a5 0516 	sub.w	r5, r5, #22
   d47b0:	db16      	blt.n	d47e0 <bbzheap_tseg_alloc+0x74>
            /* Empty slot found */
            /* Set result */
            *s = (uint16_t)i;
   d47b2:	8004      	strh	r4, [r0, #0]
            return bbzheap_tseg_alloc_prepare_seg(bbzheap_tseg_at(i));
   d47b4:	680b      	ldr	r3, [r1, #0]
   d47b6:	3318      	adds	r3, #24
   d47b8:	4413      	add	r3, r2
/****************************************/
/****************************************/

static uint8_t bbzheap_tseg_alloc_prepare_seg(bbzheap_tseg_t* x) {
    /* Set valid bit of segment and -1 index for next */
    bbzheap_tseg_makevalid(*x);
   d47ba:	f04f 32ff 	mov.w	r2, #4294967295
   d47be:	751a      	strb	r2, [r3, #20]
   d47c0:	755a      	strb	r2, [r3, #21]
   d47c2:	2200      	movs	r2, #0
    /* Invalidate keys and values */
    for(uint8_t j = 0; j < BBZHEAP_ELEMS_PER_TSEG; ++j) {
        x->keys[j] = 0;
   d47c4:	4611      	mov	r1, r2
   d47c6:	eb03 0042 	add.w	r0, r3, r2, lsl #1
   d47ca:	f803 1012 	strb.w	r1, [r3, r2, lsl #1]
   d47ce:	3201      	adds	r2, #1

static uint8_t bbzheap_tseg_alloc_prepare_seg(bbzheap_tseg_t* x) {
    /* Set valid bit of segment and -1 index for next */
    bbzheap_tseg_makevalid(*x);
    /* Invalidate keys and values */
    for(uint8_t j = 0; j < BBZHEAP_ELEMS_PER_TSEG; ++j) {
   d47d0:	2a05      	cmp	r2, #5
        x->keys[j] = 0;
   d47d2:	7041      	strb	r1, [r0, #1]
        x->values[j] = 0;
   d47d4:	7281      	strb	r1, [r0, #10]
   d47d6:	72c1      	strb	r1, [r0, #11]

static uint8_t bbzheap_tseg_alloc_prepare_seg(bbzheap_tseg_t* x) {
    /* Set valid bit of segment and -1 index for next */
    bbzheap_tseg_makevalid(*x);
    /* Invalidate keys and values */
    for(uint8_t j = 0; j < BBZHEAP_ELEMS_PER_TSEG; ++j) {
   d47d8:	d1f5      	bne.n	d47c6 <bbzheap_tseg_alloc+0x5a>
        ++i) {
        if(!bbzheap_tseg_isvalid(*bbzheap_tseg_at(i))) {
            /* Empty slot found */
            /* Set result */
            *s = (uint16_t)i;
            return bbzheap_tseg_alloc_prepare_seg(bbzheap_tseg_at(i));
   d47da:	2001      	movs	r0, #1
   d47dc:	e8bd 83f0 	ldmia.w	sp!, {r4, r5, r6, r7, r8, r9, pc}
   d47e0:	4644      	mov	r4, r8
   d47e2:	e7d6      	b.n	d4792 <bbzheap_tseg_alloc+0x26>
        }
    }
    /* Make sure there is room */
    if(vm->heap.ltseg - sizeof(bbzheap_tseg_t) < vm->heap.rtobj) return 0;
   d47e4:	693c      	ldr	r4, [r7, #16]
   d47e6:	f1a6 0216 	sub.w	r2, r6, #22
   d47ea:	42a2      	cmp	r2, r4
   d47ec:	d31b      	bcc.n	d4826 <bbzheap_tseg_alloc+0xba>
    /* Set result */
    *s = (uint16_t)qot;
   d47ee:	8003      	strh	r3, [r0, #0]
    /* Update pointer to leftmost valid segment */
    vm->heap.ltseg -= sizeof(bbzheap_tseg_t);
   d47f0:	680b      	ldr	r3, [r1, #0]
   d47f2:	6958      	ldr	r0, [r3, #20]
   d47f4:	f1a0 0216 	sub.w	r2, r0, #22
   d47f8:	615a      	str	r2, [r3, #20]
/****************************************/
/****************************************/

static uint8_t bbzheap_tseg_alloc_prepare_seg(bbzheap_tseg_t* x) {
    /* Set valid bit of segment and -1 index for next */
    bbzheap_tseg_makevalid(*x);
   d47fa:	f04f 33ff 	mov.w	r3, #4294967295
   d47fe:	f800 3c02 	strb.w	r3, [r0, #-2]
   d4802:	f800 3c01 	strb.w	r3, [r0, #-1]
   d4806:	2300      	movs	r3, #0
    /* Invalidate keys and values */
    for(uint8_t j = 0; j < BBZHEAP_ELEMS_PER_TSEG; ++j) {
        x->keys[j] = 0;
   d4808:	4619      	mov	r1, r3
   d480a:	eb00 0243 	add.w	r2, r0, r3, lsl #1
   d480e:	3301      	adds	r3, #1

static uint8_t bbzheap_tseg_alloc_prepare_seg(bbzheap_tseg_t* x) {
    /* Set valid bit of segment and -1 index for next */
    bbzheap_tseg_makevalid(*x);
    /* Invalidate keys and values */
    for(uint8_t j = 0; j < BBZHEAP_ELEMS_PER_TSEG; ++j) {
   d4810:	2b05      	cmp	r3, #5
        x->keys[j] = 0;
   d4812:	f802 1c16 	strb.w	r1, [r2, #-22]
   d4816:	f802 1c15 	strb.w	r1, [r2, #-21]
        x->values[j] = 0;
   d481a:	f802 1c0c 	strb.w	r1, [r2, #-12]
   d481e:	f802 1c0b 	strb.w	r1, [r2, #-11]

static uint8_t bbzheap_tseg_alloc_prepare_seg(bbzheap_tseg_t* x) {
    /* Set valid bit of segment and -1 index for next */
    bbzheap_tseg_makevalid(*x);
    /* Invalidate keys and values */
    for(uint8_t j = 0; j < BBZHEAP_ELEMS_PER_TSEG; ++j) {
   d4822:	d1f2      	bne.n	d480a <bbzheap_tseg_alloc+0x9e>
   d4824:	e7d9      	b.n	d47da <bbzheap_tseg_alloc+0x6e>
            *s = (uint16_t)i;
            return bbzheap_tseg_alloc_prepare_seg(bbzheap_tseg_at(i));
        }
    }
    /* Make sure there is room */
    if(vm->heap.ltseg - sizeof(bbzheap_tseg_t) < vm->heap.rtobj) return 0;
   d4826:	2000      	movs	r0, #0
    /* Set result */
    *s = (uint16_t)qot;
    /* Update pointer to leftmost valid segment */
    vm->heap.ltseg -= sizeof(bbzheap_tseg_t);
    return bbzheap_tseg_alloc_prepare_seg((bbzheap_tseg_t*)vm->heap.ltseg);
}
   d4828:	e8bd 83f0 	ldmia.w	sp!, {r4, r5, r6, r7, r8, r9, pc}
   d482c:	2003e7ec 	.word	0x2003e7ec

000d4830 <bbzheap_obj_alloc_prepare_obj>:
}

/****************************************/
/****************************************/

static uint8_t bbzheap_obj_alloc_prepare_obj(uint8_t t, bbzobj_t* x) {
   d4830:	b508      	push	{r3, lr}
    /* Set valid bit and type */
    x->mdata = ((t << BBZTYPE_TYPEIDX) & BBZTYPE_MASK) | BBZHEAP_OBJ_MASK_VALID;
   d4832:	f000 0307 	and.w	r3, r0, #7
   d4836:	f043 0308 	orr.w	r3, r3, #8
    /* Take care of special initialisations */
    if (t == BBZTYPE_TABLE) {
   d483a:	2804      	cmp	r0, #4
/****************************************/
/****************************************/

static uint8_t bbzheap_obj_alloc_prepare_obj(uint8_t t, bbzobj_t* x) {
    /* Set valid bit and type */
    x->mdata = ((t << BBZTYPE_TYPEIDX) & BBZTYPE_MASK) | BBZHEAP_OBJ_MASK_VALID;
   d483c:	700b      	strb	r3, [r1, #0]
    /* Take care of special initialisations */
    if (t == BBZTYPE_TABLE) {
   d483e:	d106      	bne.n	d484e <bbzheap_obj_alloc_prepare_obj+0x1e>
        if (!bbzheap_tseg_alloc(&x->t.value)) return 0;
   d4840:	1c48      	adds	r0, r1, #1
   d4842:	f7ff ff93 	bl	d476c <bbzheap_tseg_alloc>
    else if (t == BBZTYPE_CLOSURE) {
        bbzclosure_unmake_lambda(*x);
        (x)->l.value.actrec = BBZHEAP_CLOSURE_DFLT_ACTREC; // Default activation record
    }
    /* Success */
    return 1;
   d4846:	3000      	adds	r0, #0
   d4848:	bf18      	it	ne
   d484a:	2001      	movne	r0, #1
   d484c:	bd08      	pop	{r3, pc}
    x->mdata = ((t << BBZTYPE_TYPEIDX) & BBZTYPE_MASK) | BBZHEAP_OBJ_MASK_VALID;
    /* Take care of special initialisations */
    if (t == BBZTYPE_TABLE) {
        if (!bbzheap_tseg_alloc(&x->t.value)) return 0;
    }
    else if (t == BBZTYPE_CLOSURE) {
   d484e:	2805      	cmp	r0, #5
        bbzclosure_unmake_lambda(*x);
        (x)->l.value.actrec = BBZHEAP_CLOSURE_DFLT_ACTREC; // Default activation record
   d4850:	bf04      	itt	eq
   d4852:	23ff      	moveq	r3, #255	; 0xff
   d4854:	708b      	strbeq	r3, [r1, #2]
    }
    /* Success */
    return 1;
   d4856:	2001      	movs	r0, #1
}
   d4858:	bd08      	pop	{r3, pc}
	...

000d485c <bbzheap_obj_alloc>:

uint8_t bbzheap_obj_alloc(uint8_t t,
                          bbzheap_idx_t* o) {
   d485c:	e92d 41f0 	stmdb	sp!, {r4, r5, r6, r7, r8, lr}
    /* Look for empty slot */
    for(uint16_t i = BBZHEAP_RSV_ACTREC_MAX;
        i < (uint16_t)(vm->heap.rtobj - vm->heap.data) / sizeof(bbzobj_t);
   d4860:	4c20      	ldr	r4, [pc, #128]	; (d48e4 <bbzheap_obj_alloc+0x88>)
   d4862:	6827      	ldr	r7, [r4, #0]
   d4864:	693d      	ldr	r5, [r7, #16]
   d4866:	f107 0e18 	add.w	lr, r7, #24
   d486a:	ebce 0205 	rsb	r2, lr, r5
}

uint8_t bbzheap_obj_alloc(uint8_t t,
                          bbzheap_idx_t* o) {
    /* Look for empty slot */
    for(uint16_t i = BBZHEAP_RSV_ACTREC_MAX;
   d486e:	231c      	movs	r3, #28
   d4870:	46a4      	mov	ip, r4
        i < (uint16_t)(vm->heap.rtobj - vm->heap.data) / sizeof(bbzobj_t);
   d4872:	b292      	uxth	r2, r2
   d4874:	2605      	movs	r6, #5
   d4876:	fbb2 f6f6 	udiv	r6, r2, r6
}

uint8_t bbzheap_obj_alloc(uint8_t t,
                          bbzheap_idx_t* o) {
    /* Look for empty slot */
    for(uint16_t i = BBZHEAP_RSV_ACTREC_MAX;
   d487a:	42b3      	cmp	r3, r6
   d487c:	d220      	bcs.n	d48c0 <bbzheap_obj_alloc+0x64>

/****************************************/
/****************************************/

bbzobj_t* bbzheap_obj_at(bbzheap_idx_t i) {
    return (bbzobj_t*)vm->heap.data + i;
   d487e:	eb03 0483 	add.w	r4, r3, r3, lsl #2
   d4882:	eb0e 0804 	add.w	r8, lr, r4
                          bbzheap_idx_t* o) {
    /* Look for empty slot */
    for(uint16_t i = BBZHEAP_RSV_ACTREC_MAX;
        i < (uint16_t)(vm->heap.rtobj - vm->heap.data) / sizeof(bbzobj_t);
        ++i) {
        if(!bbzheap_obj_isvalid(*bbzheap_obj_at(i))) {
   d4886:	f81e 2004 	ldrb.w	r2, [lr, r4]
   d488a:	f012 0f08 	tst.w	r2, #8
   d488e:	d105      	bne.n	d489c <bbzheap_obj_alloc+0x40>
            /* Empty slot found */
            /* Set result */
            *o = i;
   d4890:	800b      	strh	r3, [r1, #0]

/****************************************/
/****************************************/

bbzobj_t* bbzheap_obj_at(bbzheap_idx_t i) {
    return (bbzobj_t*)vm->heap.data + i;
   d4892:	f8dc 1000 	ldr.w	r1, [ip]
   d4896:	3118      	adds	r1, #24
        ++i) {
        if(!bbzheap_obj_isvalid(*bbzheap_obj_at(i))) {
            /* Empty slot found */
            /* Set result */
            *o = i;
            return bbzheap_obj_alloc_prepare_obj(t, bbzheap_obj_at(i));
   d4898:	4421      	add	r1, r4
   d489a:	e01b      	b.n	d48d4 <bbzheap_obj_alloc+0x78>
        }
        else {
            if (t == BBZTYPE_STRING &&
   d489c:	2803      	cmp	r0, #3
   d489e:	d10c      	bne.n	d48ba <bbzheap_obj_alloc+0x5e>
   d48a0:	f002 0207 	and.w	r2, r2, #7
   d48a4:	2a03      	cmp	r2, #3
   d48a6:	d108      	bne.n	d48ba <bbzheap_obj_alloc+0x5e>
                bbztype_isstring(*bbzheap_obj_at(i)) &&
   d48a8:	880c      	ldrh	r4, [r1, #0]
   d48aa:	f8b8 2001 	ldrh.w	r2, [r8, #1]
   d48ae:	4294      	cmp	r4, r2
   d48b0:	d103      	bne.n	d48ba <bbzheap_obj_alloc+0x5e>
                *o == bbzheap_obj_at(i)->s.value) {
                *o = i;
   d48b2:	800b      	strh	r3, [r1, #0]
                return 1;
   d48b4:	2001      	movs	r0, #1
   d48b6:	e8bd 81f0 	ldmia.w	sp!, {r4, r5, r6, r7, r8, pc}
uint8_t bbzheap_obj_alloc(uint8_t t,
                          bbzheap_idx_t* o) {
    /* Look for empty slot */
    for(uint16_t i = BBZHEAP_RSV_ACTREC_MAX;
        i < (uint16_t)(vm->heap.rtobj - vm->heap.data) / sizeof(bbzobj_t);
        ++i) {
   d48ba:	3301      	adds	r3, #1
   d48bc:	b29b      	uxth	r3, r3
   d48be:	e7dc      	b.n	d487a <bbzheap_obj_alloc+0x1e>
            }
        }
    }
    /* No empty slot found, must create a new one */
    /* ...but first, make sure there is room */
    if(vm->heap.rtobj + sizeof(bbzobj_t) > vm->heap.ltseg) { return 0; }
   d48c0:	1d6b      	adds	r3, r5, #5
   d48c2:	697d      	ldr	r5, [r7, #20]
   d48c4:	42ab      	cmp	r3, r5
   d48c6:	d809      	bhi.n	d48dc <bbzheap_obj_alloc+0x80>
    /* Set result */
    *o = (uint16_t)(vm->heap.rtobj - vm->heap.data) / sizeof(bbzobj_t);
   d48c8:	800e      	strh	r6, [r1, #0]
    vm->heap.rtobj += sizeof(bbzobj_t);
   d48ca:	f8dc 3000 	ldr.w	r3, [ip]
   d48ce:	6919      	ldr	r1, [r3, #16]
   d48d0:	1d4a      	adds	r2, r1, #5
   d48d2:	611a      	str	r2, [r3, #16]
    return bbzheap_obj_alloc_prepare_obj(t, (bbzobj_t*)(vm->heap.rtobj - sizeof(bbzobj_t)));
}
   d48d4:	e8bd 41f0 	ldmia.w	sp!, {r4, r5, r6, r7, r8, lr}
    /* ...but first, make sure there is room */
    if(vm->heap.rtobj + sizeof(bbzobj_t) > vm->heap.ltseg) { return 0; }
    /* Set result */
    *o = (uint16_t)(vm->heap.rtobj - vm->heap.data) / sizeof(bbzobj_t);
    vm->heap.rtobj += sizeof(bbzobj_t);
    return bbzheap_obj_alloc_prepare_obj(t, (bbzobj_t*)(vm->heap.rtobj - sizeof(bbzobj_t)));
   d48d8:	f7ff bfaa 	b.w	d4830 <bbzheap_obj_alloc_prepare_obj>
            }
        }
    }
    /* No empty slot found, must create a new one */
    /* ...but first, make sure there is room */
    if(vm->heap.rtobj + sizeof(bbzobj_t) > vm->heap.ltseg) { return 0; }
   d48dc:	2000      	movs	r0, #0
    /* Set result */
    *o = (uint16_t)(vm->heap.rtobj - vm->heap.data) / sizeof(bbzobj_t);
    vm->heap.rtobj += sizeof(bbzobj_t);
    return bbzheap_obj_alloc_prepare_obj(t, (bbzobj_t*)(vm->heap.rtobj - sizeof(bbzobj_t)));
}
   d48de:	e8bd 81f0 	ldmia.w	sp!, {r4, r5, r6, r7, r8, pc}
   d48e2:	bf00      	nop
   d48e4:	2003e7ec 	.word	0x2003e7ec

000d48e8 <_Z9bbz_delayv>:

    Serial.printlnf("Dat number %d", dat_num);
    bbzvm_ret0();
}

void bbz_delay(){
   d48e8:	b507      	push	{r0, r1, r2, lr}
    delay((uint16_t)bbzheap_obj_at(bbzvm_locals_at(1))->i.value);
   d48ea:	4b0a      	ldr	r3, [pc, #40]	; (d4914 <_Z9bbz_delayv+0x2c>)
   d48ec:	681b      	ldr	r3, [r3, #0]
   d48ee:	f10d 0206 	add.w	r2, sp, #6
   d48f2:	2101      	movs	r1, #1
   d48f4:	8998      	ldrh	r0, [r3, #12]
   d48f6:	f7ff fc01 	bl	d40fc <bbzdarray_get>
   d48fa:	f8bd 0006 	ldrh.w	r0, [sp, #6]
   d48fe:	f7ff ff2b 	bl	d4758 <bbzheap_obj_at>
   d4902:	f8b0 0001 	ldrh.w	r0, [r0, #1]
   d4906:	f000 fd99 	bl	d543c <delay>

    bbzvm_ret0();
   d490a:	f7ff fd6d 	bl	d43e8 <bbzvm_ret0>
}
   d490e:	b003      	add	sp, #12
   d4910:	f85d fb04 	ldr.w	pc, [sp], #4
   d4914:	2003e7ec 	.word	0x2003e7ec

000d4918 <_Z16bzz_print_numberv>:
 * Date:
 */

#include "bbzparticle.h"

void bzz_print_number(){
   d4918:	b513      	push	{r0, r1, r4, lr}
    bbzvm_assert_lnum(1);
   d491a:	4c11      	ldr	r4, [pc, #68]	; (d4960 <_Z16bzz_print_numberv+0x48>)
   d491c:	6823      	ldr	r3, [r4, #0]
   d491e:	8998      	ldrh	r0, [r3, #12]
   d4920:	f7ff fc3c 	bl	d419c <bbzdarray_size>
   d4924:	2802      	cmp	r0, #2
   d4926:	d003      	beq.n	d4930 <_Z16bzz_print_numberv+0x18>
   d4928:	2003      	movs	r0, #3
   d492a:	f7ff fc67 	bl	d41fc <bbzvm_seterror>
   d492e:	e015      	b.n	d495c <_Z16bzz_print_numberv+0x44>

    int dat_num = (uint16_t)bbzheap_obj_at(bbzvm_locals_at(1))->i.value;
   d4930:	6823      	ldr	r3, [r4, #0]
   d4932:	f10d 0206 	add.w	r2, sp, #6
   d4936:	2101      	movs	r1, #1
   d4938:	8998      	ldrh	r0, [r3, #12]
   d493a:	f7ff fbdf 	bl	d40fc <bbzdarray_get>
   d493e:	f8bd 0006 	ldrh.w	r0, [sp, #6]
   d4942:	f7ff ff09 	bl	d4758 <bbzheap_obj_at>
   d4946:	f8b0 4001 	ldrh.w	r4, [r0, #1]

    Serial.printlnf("Dat number %d", dat_num);
   d494a:	f000 fc43 	bl	d51d4 <_Z16_fetch_usbserialv>
    }

    template <typename... Args>
    inline size_t printlnf(const char* format, Args... args)
    {
        return this->printf_impl(true, format, args...);
   d494e:	4623      	mov	r3, r4
   d4950:	4a04      	ldr	r2, [pc, #16]	; (d4964 <_Z16bzz_print_numberv+0x4c>)
   d4952:	2101      	movs	r1, #1
   d4954:	f000 fddd 	bl	d5512 <_ZN5Print11printf_implEbPKcz>
    bbzvm_ret0();
   d4958:	f7ff fd46 	bl	d43e8 <bbzvm_ret0>
}
   d495c:	b002      	add	sp, #8
   d495e:	bd10      	pop	{r4, pc}
   d4960:	2003e7ec 	.word	0x2003e7ec
   d4964:	000d59e8 	.word	0x000d59e8

000d4968 <_ZN5Print8printlnfIIEEEjPKcDpT_>:
   d4968:	460a      	mov	r2, r1
   d496a:	2101      	movs	r1, #1
   d496c:	f000 bdd1 	b.w	d5512 <_ZN5Print11printf_implEbPKcz>

000d4970 <setup>:

    bbzvm_ret0();
}

// setup() runs once, when the device is first turned on.
void setup() {
   d4970:	b508      	push	{r3, lr}

    Serial.printlnf("Start");
   d4972:	f000 fc2f 	bl	d51d4 <_Z16_fetch_usbserialv>
   d4976:	490e      	ldr	r1, [pc, #56]	; (d49b0 <setup+0x40>)
   d4978:	f7ff fff6 	bl	d4968 <_ZN5Print8printlnfIIEEEjPKcDpT_>

    bbz_particle_init();
   d497c:	f000 f832 	bl	d49e4 <_Z17bbz_particle_initv>

    Serial.printlnf("Registering functions");
   d4980:	f000 fc28 	bl	d51d4 <_Z16_fetch_usbserialv>
   d4984:	490b      	ldr	r1, [pc, #44]	; (d49b4 <setup+0x44>)
   d4986:	f7ff ffef 	bl	d4968 <_ZN5Print8printlnfIIEEEjPKcDpT_>

    bbzvm_function_register(BBZSTRING_ID(print), bzz_print_number);
   d498a:	490b      	ldr	r1, [pc, #44]	; (d49b8 <setup+0x48>)
   d498c:	2002      	movs	r0, #2
   d498e:	f7ff fd0b 	bl	d43a8 <bbzvm_function_register>

    Serial.printlnf("First done ");
   d4992:	f000 fc1f 	bl	d51d4 <_Z16_fetch_usbserialv>
   d4996:	4909      	ldr	r1, [pc, #36]	; (d49bc <setup+0x4c>)
   d4998:	f7ff ffe6 	bl	d4968 <_ZN5Print8printlnfIIEEEjPKcDpT_>
    bbzvm_function_register(BBZSTRING_ID(delay), bbz_delay);
   d499c:	4908      	ldr	r1, [pc, #32]	; (d49c0 <setup+0x50>)
   d499e:	2003      	movs	r0, #3
   d49a0:	f7ff fd02 	bl	d43a8 <bbzvm_function_register>


    Serial.printlnf("INIT DONE");
   d49a4:	f000 fc16 	bl	d51d4 <_Z16_fetch_usbserialv>
   d49a8:	4906      	ldr	r1, [pc, #24]	; (d49c4 <setup+0x54>)
   d49aa:	f7ff ffdd 	bl	d4968 <_ZN5Print8printlnfIIEEEjPKcDpT_>
   d49ae:	bd08      	pop	{r3, pc}
   d49b0:	000d59f6 	.word	0x000d59f6
   d49b4:	000d59fc 	.word	0x000d59fc
   d49b8:	000d4919 	.word	0x000d4919
   d49bc:	000d5a12 	.word	0x000d5a12
   d49c0:	000d48e9 	.word	0x000d48e9
   d49c4:	000d5a1e 	.word	0x000d5a1e

000d49c8 <loop>:
void bbz_setup() {
    Serial.printlnf("BBVM STARTED :D ");
}

// loop() runs over and over again, as quickly as it can execute.
void loop() {
   d49c8:	b508      	push	{r3, lr}

    //bbz_particle_start(NULL);
    Serial.printlnf("DEVICE CRASHED");
   d49ca:	f000 fc03 	bl	d51d4 <_Z16_fetch_usbserialv>
   d49ce:	4902      	ldr	r1, [pc, #8]	; (d49d8 <loop+0x10>)
   d49d0:	f7ff ffca 	bl	d4968 <_ZN5Print8printlnfIIEEEjPKcDpT_>
   d49d4:	bd08      	pop	{r3, pc}
   d49d6:	bf00      	nop
   d49d8:	000d5a39 	.word	0x000d5a39

000d49dc <_GLOBAL__sub_I__Z16bzz_print_numberv>:

inline void pinSetFast(pin_t _pin) __attribute__((always_inline));
inline void pinResetFast(pin_t _pin) __attribute__((always_inline));
inline int32_t pinReadFast(pin_t _pin) __attribute__((always_inline));

static Hal_Pin_Info* PIN_MAP = HAL_Pin_Map();
   d49dc:	f000 b8c4 	b.w	d4b68 <HAL_Pin_Map>

000d49e0 <_GLOBAL__sub_I__Z15bbzmessage_sendPK9message_t>:
   d49e0:	f000 b8c2 	b.w	d4b68 <HAL_Pin_Map>

000d49e4 <_Z17bbz_particle_initv>:

void bbzkilo_err_receiver(bbzvm_error errcode){
    Serial.printlnf("ERROR %d ", errcode);
}

void bbz_particle_init(){
   d49e4:	b508      	push	{r3, lr}
    Serial.begin(9600);
   d49e6:	f000 fbf5 	bl	d51d4 <_Z16_fetch_usbserialv>
   d49ea:	f44f 5116 	mov.w	r1, #9600	; 0x2580
   d49ee:	f000 fbe5 	bl	d51bc <_ZN9USBSerial5beginEl>
    vm = &bbz_vm_obj;
   d49f2:	4b02      	ldr	r3, [pc, #8]	; (d49fc <_Z17bbz_particle_initv+0x18>)
   d49f4:	4a02      	ldr	r2, [pc, #8]	; (d4a00 <_Z17bbz_particle_initv+0x1c>)
   d49f6:	601a      	str	r2, [r3, #0]
   d49f8:	bd08      	pop	{r3, pc}
   d49fa:	bf00      	nop
   d49fc:	2003e7ec 	.word	0x2003e7ec
   d4a00:	2003dd90 	.word	0x2003dd90

000d4a04 <_GLOBAL__sub_I_bbz_vm_obj>:
   d4a04:	f000 b8b0 	b.w	d4b68 <HAL_Pin_Map>

000d4a08 <HAL_USB_USART_Init>:
#endif

DYNALIB_BEGIN(hal_usb)

#ifdef USB_CDC_ENABLE
DYNALIB_FN(0, hal_usb, HAL_USB_USART_Init, void(HAL_USB_USART_Serial, const HAL_USB_USART_Config*))
   d4a08:	b508      	push	{r3, lr}
   d4a0a:	4b02      	ldr	r3, [pc, #8]	; (d4a14 <HAL_USB_USART_Init+0xc>)
   d4a0c:	681b      	ldr	r3, [r3, #0]
   d4a0e:	681b      	ldr	r3, [r3, #0]
   d4a10:	9301      	str	r3, [sp, #4]
   d4a12:	bd08      	pop	{r3, pc}
   d4a14:	0003024c 	.word	0x0003024c

000d4a18 <HAL_USB_USART_Begin>:
DYNALIB_FN(1, hal_usb, HAL_USB_USART_Begin, void(HAL_USB_USART_Serial, uint32_t, void *))
   d4a18:	b508      	push	{r3, lr}
   d4a1a:	4b02      	ldr	r3, [pc, #8]	; (d4a24 <HAL_USB_USART_Begin+0xc>)
   d4a1c:	681b      	ldr	r3, [r3, #0]
   d4a1e:	685b      	ldr	r3, [r3, #4]
   d4a20:	9301      	str	r3, [sp, #4]
   d4a22:	bd08      	pop	{r3, pc}
   d4a24:	0003024c 	.word	0x0003024c

000d4a28 <HAL_USB_USART_Available_Data>:
DYNALIB_FN(2, hal_usb, HAL_USB_USART_End, void(HAL_USB_USART_Serial))
DYNALIB_FN(3, hal_usb, HAL_USB_USART_Baud_Rate, unsigned int(HAL_USB_USART_Serial))
DYNALIB_FN(4, hal_usb, HAL_USB_USART_Available_Data, int32_t(HAL_USB_USART_Serial))
   d4a28:	b508      	push	{r3, lr}
   d4a2a:	4b02      	ldr	r3, [pc, #8]	; (d4a34 <HAL_USB_USART_Available_Data+0xc>)
   d4a2c:	681b      	ldr	r3, [r3, #0]
   d4a2e:	691b      	ldr	r3, [r3, #16]
   d4a30:	9301      	str	r3, [sp, #4]
   d4a32:	bd08      	pop	{r3, pc}
   d4a34:	0003024c 	.word	0x0003024c

000d4a38 <HAL_USB_USART_Available_Data_For_Write>:
DYNALIB_FN(5, hal_usb, HAL_USB_USART_Available_Data_For_Write, int32_t(HAL_USB_USART_Serial))
   d4a38:	b508      	push	{r3, lr}
   d4a3a:	4b02      	ldr	r3, [pc, #8]	; (d4a44 <HAL_USB_USART_Available_Data_For_Write+0xc>)
   d4a3c:	681b      	ldr	r3, [r3, #0]
   d4a3e:	695b      	ldr	r3, [r3, #20]
   d4a40:	9301      	str	r3, [sp, #4]
   d4a42:	bd08      	pop	{r3, pc}
   d4a44:	0003024c 	.word	0x0003024c

000d4a48 <HAL_USB_USART_Receive_Data>:
DYNALIB_FN(6, hal_usb, HAL_USB_USART_Receive_Data, int32_t(HAL_USB_USART_Serial, uint8_t))
   d4a48:	b508      	push	{r3, lr}
   d4a4a:	4b02      	ldr	r3, [pc, #8]	; (d4a54 <HAL_USB_USART_Receive_Data+0xc>)
   d4a4c:	681b      	ldr	r3, [r3, #0]
   d4a4e:	699b      	ldr	r3, [r3, #24]
   d4a50:	9301      	str	r3, [sp, #4]
   d4a52:	bd08      	pop	{r3, pc}
   d4a54:	0003024c 	.word	0x0003024c

000d4a58 <HAL_USB_USART_Send_Data>:
DYNALIB_FN(7, hal_usb, HAL_USB_USART_Send_Data, int32_t(HAL_USB_USART_Serial, uint8_t))
   d4a58:	b508      	push	{r3, lr}
   d4a5a:	4b02      	ldr	r3, [pc, #8]	; (d4a64 <HAL_USB_USART_Send_Data+0xc>)
   d4a5c:	681b      	ldr	r3, [r3, #0]
   d4a5e:	69db      	ldr	r3, [r3, #28]
   d4a60:	9301      	str	r3, [sp, #4]
   d4a62:	bd08      	pop	{r3, pc}
   d4a64:	0003024c 	.word	0x0003024c

000d4a68 <HAL_USB_USART_Flush_Data>:
DYNALIB_FN(8, hal_usb, HAL_USB_USART_Flush_Data, void(HAL_USB_USART_Serial))
   d4a68:	b508      	push	{r3, lr}
   d4a6a:	4b02      	ldr	r3, [pc, #8]	; (d4a74 <HAL_USB_USART_Flush_Data+0xc>)
   d4a6c:	681b      	ldr	r3, [r3, #0]
   d4a6e:	6a1b      	ldr	r3, [r3, #32]
   d4a70:	9301      	str	r3, [sp, #4]
   d4a72:	bd08      	pop	{r3, pc}
   d4a74:	0003024c 	.word	0x0003024c

000d4a78 <HAL_USART_Init>:
#define BASE_IDX 6 // Base index for all subsequent functions
#else
#define BASE_IDX 0
#endif

DYNALIB_FN(BASE_IDX + 0, hal_usart, HAL_USART_Init, void(HAL_USART_Serial, Ring_Buffer*, Ring_Buffer*))
   d4a78:	b508      	push	{r3, lr}
   d4a7a:	4b02      	ldr	r3, [pc, #8]	; (d4a84 <HAL_USART_Init+0xc>)
   d4a7c:	681b      	ldr	r3, [r3, #0]
   d4a7e:	681b      	ldr	r3, [r3, #0]
   d4a80:	9301      	str	r3, [sp, #4]
   d4a82:	bd08      	pop	{r3, pc}
   d4a84:	0003023c 	.word	0x0003023c

000d4a88 <HAL_USART_Write_Data>:
DYNALIB_FN(BASE_IDX + 1, hal_usart, HAL_USART_Begin, void(HAL_USART_Serial, uint32_t))
DYNALIB_FN(BASE_IDX + 2, hal_usart, HAL_USART_End, void(HAL_USART_Serial))
DYNALIB_FN(BASE_IDX + 3, hal_usart, HAL_USART_Write_Data, uint32_t(HAL_USART_Serial, uint8_t))
   d4a88:	b508      	push	{r3, lr}
   d4a8a:	4b02      	ldr	r3, [pc, #8]	; (d4a94 <HAL_USART_Write_Data+0xc>)
   d4a8c:	681b      	ldr	r3, [r3, #0]
   d4a8e:	68db      	ldr	r3, [r3, #12]
   d4a90:	9301      	str	r3, [sp, #4]
   d4a92:	bd08      	pop	{r3, pc}
   d4a94:	0003023c 	.word	0x0003023c

000d4a98 <HAL_USART_Available_Data>:
DYNALIB_FN(BASE_IDX + 4, hal_usart, HAL_USART_Available_Data, int32_t(HAL_USART_Serial))
   d4a98:	b508      	push	{r3, lr}
   d4a9a:	4b02      	ldr	r3, [pc, #8]	; (d4aa4 <HAL_USART_Available_Data+0xc>)
   d4a9c:	681b      	ldr	r3, [r3, #0]
   d4a9e:	691b      	ldr	r3, [r3, #16]
   d4aa0:	9301      	str	r3, [sp, #4]
   d4aa2:	bd08      	pop	{r3, pc}
   d4aa4:	0003023c 	.word	0x0003023c

000d4aa8 <HAL_USART_Read_Data>:
DYNALIB_FN(BASE_IDX + 5, hal_usart, HAL_USART_Read_Data, int32_t(HAL_USART_Serial))
   d4aa8:	b508      	push	{r3, lr}
   d4aaa:	4b02      	ldr	r3, [pc, #8]	; (d4ab4 <HAL_USART_Read_Data+0xc>)
   d4aac:	681b      	ldr	r3, [r3, #0]
   d4aae:	695b      	ldr	r3, [r3, #20]
   d4ab0:	9301      	str	r3, [sp, #4]
   d4ab2:	bd08      	pop	{r3, pc}
   d4ab4:	0003023c 	.word	0x0003023c

000d4ab8 <HAL_USART_Peek_Data>:
DYNALIB_FN(BASE_IDX + 6, hal_usart, HAL_USART_Peek_Data, int32_t(HAL_USART_Serial))
   d4ab8:	b508      	push	{r3, lr}
   d4aba:	4b02      	ldr	r3, [pc, #8]	; (d4ac4 <HAL_USART_Peek_Data+0xc>)
   d4abc:	681b      	ldr	r3, [r3, #0]
   d4abe:	699b      	ldr	r3, [r3, #24]
   d4ac0:	9301      	str	r3, [sp, #4]
   d4ac2:	bd08      	pop	{r3, pc}
   d4ac4:	0003023c 	.word	0x0003023c

000d4ac8 <HAL_USART_Flush_Data>:
DYNALIB_FN(BASE_IDX + 7, hal_usart, HAL_USART_Flush_Data, void(HAL_USART_Serial))
   d4ac8:	b508      	push	{r3, lr}
   d4aca:	4b02      	ldr	r3, [pc, #8]	; (d4ad4 <HAL_USART_Flush_Data+0xc>)
   d4acc:	681b      	ldr	r3, [r3, #0]
   d4ace:	69db      	ldr	r3, [r3, #28]
   d4ad0:	9301      	str	r3, [sp, #4]
   d4ad2:	bd08      	pop	{r3, pc}
   d4ad4:	0003023c 	.word	0x0003023c

000d4ad8 <HAL_USART_Available_Data_For_Write>:
DYNALIB_FN(BASE_IDX + 8, hal_usart, HAL_USART_Is_Enabled, bool(HAL_USART_Serial))
DYNALIB_FN(BASE_IDX + 9, hal_usart, HAL_USART_Half_Duplex, void(HAL_USART_Serial, bool))
DYNALIB_FN(BASE_IDX + 10, hal_usart, HAL_USART_Available_Data_For_Write, int32_t(HAL_USART_Serial))
   d4ad8:	b508      	push	{r3, lr}
   d4ada:	4b02      	ldr	r3, [pc, #8]	; (d4ae4 <HAL_USART_Available_Data_For_Write+0xc>)
   d4adc:	681b      	ldr	r3, [r3, #0]
   d4ade:	6a9b      	ldr	r3, [r3, #40]	; 0x28
   d4ae0:	9301      	str	r3, [sp, #4]
   d4ae2:	bd08      	pop	{r3, pc}
   d4ae4:	0003023c 	.word	0x0003023c

000d4ae8 <inet_inet_ntop>:
DYNALIB_FN(0, hal_inet, inet_inet_addr, in_addr_t(const char*))
DYNALIB_FN(1, hal_inet, inet_inet_aton, int(const char*, struct in_addr*))
DYNALIB_FN(2, hal_inet, inet_inet_network, in_addr_t(const char*))
DYNALIB_FN(3, hal_inet, inet_inet_ntoa, char*(struct in_addr))
DYNALIB_FN(4, hal_inet, inet_inet_ntoa_r, char*(struct in_addr, char*, socklen_t))
DYNALIB_FN(5, hal_inet, inet_inet_ntop, const char*(int, const void*, char*, socklen_t))
   d4ae8:	b508      	push	{r3, lr}
   d4aea:	4b02      	ldr	r3, [pc, #8]	; (d4af4 <inet_inet_ntop+0xc>)
   d4aec:	681b      	ldr	r3, [r3, #0]
   d4aee:	695b      	ldr	r3, [r3, #20]
   d4af0:	9301      	str	r3, [sp, #4]
   d4af2:	bd08      	pop	{r3, pc}
   d4af4:	00030264 	.word	0x00030264

000d4af8 <os_thread_is_current>:
DYNALIB_BEGIN(hal_concurrent)

#if PLATFORM_THREADING
DYNALIB_FN(0, hal_concurrent, __gthread_equal, bool(__gthread_t, __gthread_t))
DYNALIB_FN(1, hal_concurrent, os_thread_create, os_result_t(os_thread_t*, const char*, os_thread_prio_t, os_thread_fn_t, void*, size_t))
DYNALIB_FN(2, hal_concurrent, os_thread_is_current, bool(os_thread_t))
   d4af8:	b508      	push	{r3, lr}
   d4afa:	4b02      	ldr	r3, [pc, #8]	; (d4b04 <os_thread_is_current+0xc>)
   d4afc:	681b      	ldr	r3, [r3, #0]
   d4afe:	689b      	ldr	r3, [r3, #8]
   d4b00:	9301      	str	r3, [sp, #4]
   d4b02:	bd08      	pop	{r3, pc}
   d4b04:	00030248 	.word	0x00030248

000d4b08 <os_thread_join>:
DYNALIB_FN(3, hal_concurrent, os_thread_yield, os_result_t(void))
DYNALIB_FN(4, hal_concurrent, os_thread_join, os_result_t(os_thread_t))
   d4b08:	b508      	push	{r3, lr}
   d4b0a:	4b02      	ldr	r3, [pc, #8]	; (d4b14 <os_thread_join+0xc>)
   d4b0c:	681b      	ldr	r3, [r3, #0]
   d4b0e:	691b      	ldr	r3, [r3, #16]
   d4b10:	9301      	str	r3, [sp, #4]
   d4b12:	bd08      	pop	{r3, pc}
   d4b14:	00030248 	.word	0x00030248

000d4b18 <os_thread_cleanup>:
DYNALIB_FN(5, hal_concurrent, os_thread_cleanup, os_result_t(os_thread_t))
   d4b18:	b508      	push	{r3, lr}
   d4b1a:	4b02      	ldr	r3, [pc, #8]	; (d4b24 <os_thread_cleanup+0xc>)
   d4b1c:	681b      	ldr	r3, [r3, #0]
   d4b1e:	695b      	ldr	r3, [r3, #20]
   d4b20:	9301      	str	r3, [sp, #4]
   d4b22:	bd08      	pop	{r3, pc}
   d4b24:	00030248 	.word	0x00030248

000d4b28 <os_mutex_recursive_create>:
DYNALIB_FN(13, hal_concurrent, os_mutex_destroy, int(os_mutex_t))
DYNALIB_FN(14, hal_concurrent, os_mutex_lock, int(os_mutex_t))
DYNALIB_FN(15, hal_concurrent, os_mutex_trylock, int(os_mutex_t))
DYNALIB_FN(16, hal_concurrent, os_mutex_unlock, int(os_mutex_t))

DYNALIB_FN(17, hal_concurrent, os_mutex_recursive_create, int(os_mutex_recursive_t*))
   d4b28:	b508      	push	{r3, lr}
   d4b2a:	4b02      	ldr	r3, [pc, #8]	; (d4b34 <os_mutex_recursive_create+0xc>)
   d4b2c:	681b      	ldr	r3, [r3, #0]
   d4b2e:	6c5b      	ldr	r3, [r3, #68]	; 0x44
   d4b30:	9301      	str	r3, [sp, #4]
   d4b32:	bd08      	pop	{r3, pc}
   d4b34:	00030248 	.word	0x00030248

000d4b38 <os_mutex_recursive_destroy>:
DYNALIB_FN(18, hal_concurrent, os_mutex_recursive_destroy, int(os_mutex_recursive_t))
   d4b38:	b508      	push	{r3, lr}
   d4b3a:	4b02      	ldr	r3, [pc, #8]	; (d4b44 <os_mutex_recursive_destroy+0xc>)
   d4b3c:	681b      	ldr	r3, [r3, #0]
   d4b3e:	6c9b      	ldr	r3, [r3, #72]	; 0x48
   d4b40:	9301      	str	r3, [sp, #4]
   d4b42:	bd08      	pop	{r3, pc}
   d4b44:	00030248 	.word	0x00030248

000d4b48 <HAL_RNG_GetRandomNumber>:

DYNALIB_BEGIN(hal)

#if PLATFORM_ID > 3
DYNALIB_FN(0, hal, HAL_RNG_Configuration, void(void))
DYNALIB_FN(1, hal, HAL_RNG_GetRandomNumber, uint32_t(void))
   d4b48:	b508      	push	{r3, lr}
   d4b4a:	4b02      	ldr	r3, [pc, #8]	; (d4b54 <HAL_RNG_GetRandomNumber+0xc>)
   d4b4c:	681b      	ldr	r3, [r3, #0]
   d4b4e:	685b      	ldr	r3, [r3, #4]
   d4b50:	9301      	str	r3, [sp, #4]
   d4b52:	bd08      	pop	{r3, pc}
   d4b54:	00030218 	.word	0x00030218

000d4b58 <HAL_Timer_Get_Milli_Seconds>:
#endif

DYNALIB_FN(BASE_IDX + 0, hal, HAL_Delay_Milliseconds, void(uint32_t))
DYNALIB_FN(BASE_IDX + 1, hal, HAL_Delay_Microseconds, void(uint32_t))
DYNALIB_FN(BASE_IDX + 2, hal, HAL_Timer_Get_Micro_Seconds, system_tick_t(void))
DYNALIB_FN(BASE_IDX + 3, hal, HAL_Timer_Get_Milli_Seconds, system_tick_t(void))
   d4b58:	b508      	push	{r3, lr}
   d4b5a:	4b02      	ldr	r3, [pc, #8]	; (d4b64 <HAL_Timer_Get_Milli_Seconds+0xc>)
   d4b5c:	681b      	ldr	r3, [r3, #0]
   d4b5e:	695b      	ldr	r3, [r3, #20]
   d4b60:	9301      	str	r3, [sp, #4]
   d4b62:	bd08      	pop	{r3, pc}
   d4b64:	00030218 	.word	0x00030218

000d4b68 <HAL_Pin_Map>:
// New HAL functions must be added to the end of this list.
// GNINRAW

DYNALIB_BEGIN(hal_gpio)

DYNALIB_FN(0, hal_gpio, HAL_Pin_Map, Hal_Pin_Info*(void))
   d4b68:	b508      	push	{r3, lr}
   d4b6a:	4b02      	ldr	r3, [pc, #8]	; (d4b74 <HAL_Pin_Map+0xc>)
   d4b6c:	681b      	ldr	r3, [r3, #0]
   d4b6e:	681b      	ldr	r3, [r3, #0]
   d4b70:	9301      	str	r3, [sp, #4]
   d4b72:	bd08      	pop	{r3, pc}
   d4b74:	0003022c 	.word	0x0003022c

000d4b78 <netdb_freeaddrinfo>:

DYNALIB_BEGIN(hal_netdb)

DYNALIB_FN(0, hal_netdb, netdb_gethostbyname, struct hostent*(const char*))
DYNALIB_FN(1, hal_netdb, netdb_gethostbyname_r, int(const char*, struct hostent*, char*, size_t, struct hostent**, int*))
DYNALIB_FN(2, hal_netdb, netdb_freeaddrinfo, void(struct addrinfo*))
   d4b78:	b508      	push	{r3, lr}
   d4b7a:	4b02      	ldr	r3, [pc, #8]	; (d4b84 <netdb_freeaddrinfo+0xc>)
   d4b7c:	681b      	ldr	r3, [r3, #0]
   d4b7e:	689b      	ldr	r3, [r3, #8]
   d4b80:	9301      	str	r3, [sp, #4]
   d4b82:	bd08      	pop	{r3, pc}
   d4b84:	00030268 	.word	0x00030268

000d4b88 <netdb_getaddrinfo>:
DYNALIB_FN(3, hal_netdb, netdb_getaddrinfo, int(const char*, const char*, const struct addrinfo*, struct addrinfo**))
   d4b88:	b508      	push	{r3, lr}
   d4b8a:	4b02      	ldr	r3, [pc, #8]	; (d4b94 <netdb_getaddrinfo+0xc>)
   d4b8c:	681b      	ldr	r3, [r3, #0]
   d4b8e:	68db      	ldr	r3, [r3, #12]
   d4b90:	9301      	str	r3, [sp, #4]
   d4b92:	bd08      	pop	{r3, pc}
   d4b94:	00030268 	.word	0x00030268

000d4b98 <spark_set_random_seed_from_cloud_handler>:
DYNALIB_FN(10, system_cloud, spark_unsubscribe, void(void*))
DYNALIB_FN(11, system_cloud, spark_sync_time, bool(void*))
DYNALIB_FN(12, system_cloud, spark_sync_time_pending, bool(void*))
DYNALIB_FN(13, system_cloud, spark_sync_time_last, system_tick_t(time_t*, void*))
DYNALIB_FN(14, system_cloud, spark_set_connection_property, int(unsigned, unsigned, particle::protocol::connection_properties_t*, void*))
DYNALIB_FN(15, system_cloud, spark_set_random_seed_from_cloud_handler, int(void (*handler)(unsigned int), void*))
   d4b98:	b508      	push	{r3, lr}
   d4b9a:	4b02      	ldr	r3, [pc, #8]	; (d4ba4 <spark_set_random_seed_from_cloud_handler+0xc>)
   d4b9c:	681b      	ldr	r3, [r3, #0]
   d4b9e:	6bdb      	ldr	r3, [r3, #60]	; 0x3c
   d4ba0:	9301      	str	r3, [sp, #4]
   d4ba2:	bd08      	pop	{r3, pc}
   d4ba4:	00030244 	.word	0x00030244

000d4ba8 <network_connect>:
#endif

DYNALIB_BEGIN(system_net)

DYNALIB_FN(0, system_net, network_config, const void*(network_handle_t, uint32_t, void*))
DYNALIB_FN(1, system_net, network_connect, void(network_handle_t, uint32_t, uint32_t, void*))
   d4ba8:	b508      	push	{r3, lr}
   d4baa:	4b02      	ldr	r3, [pc, #8]	; (d4bb4 <network_connect+0xc>)
   d4bac:	681b      	ldr	r3, [r3, #0]
   d4bae:	685b      	ldr	r3, [r3, #4]
   d4bb0:	9301      	str	r3, [sp, #4]
   d4bb2:	bd08      	pop	{r3, pc}
   d4bb4:	00030240 	.word	0x00030240

000d4bb8 <network_connecting>:
DYNALIB_FN(2, system_net, network_connecting, bool(network_handle_t, uint32_t, void*))
   d4bb8:	b508      	push	{r3, lr}
   d4bba:	4b02      	ldr	r3, [pc, #8]	; (d4bc4 <network_connecting+0xc>)
   d4bbc:	681b      	ldr	r3, [r3, #0]
   d4bbe:	689b      	ldr	r3, [r3, #8]
   d4bc0:	9301      	str	r3, [sp, #4]
   d4bc2:	bd08      	pop	{r3, pc}
   d4bc4:	00030240 	.word	0x00030240

000d4bc8 <network_disconnect>:
DYNALIB_FN(3, system_net, network_disconnect, void(network_handle_t, uint32_t, void*))
   d4bc8:	b508      	push	{r3, lr}
   d4bca:	4b02      	ldr	r3, [pc, #8]	; (d4bd4 <network_disconnect+0xc>)
   d4bcc:	681b      	ldr	r3, [r3, #0]
   d4bce:	68db      	ldr	r3, [r3, #12]
   d4bd0:	9301      	str	r3, [sp, #4]
   d4bd2:	bd08      	pop	{r3, pc}
   d4bd4:	00030240 	.word	0x00030240

000d4bd8 <network_ready>:
DYNALIB_FN(4, system_net, network_ready, bool(network_handle_t, uint32_t, void*))
   d4bd8:	b508      	push	{r3, lr}
   d4bda:	4b02      	ldr	r3, [pc, #8]	; (d4be4 <network_ready+0xc>)
   d4bdc:	681b      	ldr	r3, [r3, #0]
   d4bde:	691b      	ldr	r3, [r3, #16]
   d4be0:	9301      	str	r3, [sp, #4]
   d4be2:	bd08      	pop	{r3, pc}
   d4be4:	00030240 	.word	0x00030240

000d4be8 <network_on>:
DYNALIB_FN(5, system_net, network_on, void(network_handle_t, uint32_t, uint32_t, void*))
   d4be8:	b508      	push	{r3, lr}
   d4bea:	4b02      	ldr	r3, [pc, #8]	; (d4bf4 <network_on+0xc>)
   d4bec:	681b      	ldr	r3, [r3, #0]
   d4bee:	695b      	ldr	r3, [r3, #20]
   d4bf0:	9301      	str	r3, [sp, #4]
   d4bf2:	bd08      	pop	{r3, pc}
   d4bf4:	00030240 	.word	0x00030240

000d4bf8 <network_off>:
DYNALIB_FN(6, system_net, network_off, void(network_handle_t, uint32_t, uint32_t, void*))
   d4bf8:	b508      	push	{r3, lr}
   d4bfa:	4b02      	ldr	r3, [pc, #8]	; (d4c04 <network_off+0xc>)
   d4bfc:	681b      	ldr	r3, [r3, #0]
   d4bfe:	699b      	ldr	r3, [r3, #24]
   d4c00:	9301      	str	r3, [sp, #4]
   d4c02:	bd08      	pop	{r3, pc}
   d4c04:	00030240 	.word	0x00030240

000d4c08 <network_listen>:
DYNALIB_FN(7, system_net, network_listen, void(network_handle_t, uint32_t, void*))
   d4c08:	b508      	push	{r3, lr}
   d4c0a:	4b02      	ldr	r3, [pc, #8]	; (d4c14 <network_listen+0xc>)
   d4c0c:	681b      	ldr	r3, [r3, #0]
   d4c0e:	69db      	ldr	r3, [r3, #28]
   d4c10:	9301      	str	r3, [sp, #4]
   d4c12:	bd08      	pop	{r3, pc}
   d4c14:	00030240 	.word	0x00030240

000d4c18 <network_listening>:
DYNALIB_FN(8, system_net, network_listening, bool(network_handle_t, uint32_t, void*))
   d4c18:	b508      	push	{r3, lr}
   d4c1a:	4b02      	ldr	r3, [pc, #8]	; (d4c24 <network_listening+0xc>)
   d4c1c:	681b      	ldr	r3, [r3, #0]
   d4c1e:	6a1b      	ldr	r3, [r3, #32]
   d4c20:	9301      	str	r3, [sp, #4]
   d4c22:	bd08      	pop	{r3, pc}
   d4c24:	00030240 	.word	0x00030240

000d4c28 <network_set_listen_timeout>:
DYNALIB_FN(9, system_net, network_has_credentials, bool(network_handle_t, uint32_t, void*))
DYNALIB_FN(10, system_net, network_set_credentials, int(network_handle_t, uint32_t, NetworkCredentials*, void*))
DYNALIB_FN(11, system_net, network_clear_credentials, bool(network_handle_t, uint32_t, NetworkCredentials*, void*))
DYNALIB_FN(12, system_net, network_set_listen_timeout, void(network_handle_t, uint16_t, void*))
   d4c28:	b508      	push	{r3, lr}
   d4c2a:	4b02      	ldr	r3, [pc, #8]	; (d4c34 <network_set_listen_timeout+0xc>)
   d4c2c:	681b      	ldr	r3, [r3, #0]
   d4c2e:	6b1b      	ldr	r3, [r3, #48]	; 0x30
   d4c30:	9301      	str	r3, [sp, #4]
   d4c32:	bd08      	pop	{r3, pc}
   d4c34:	00030240 	.word	0x00030240

000d4c38 <network_get_listen_timeout>:
DYNALIB_FN(13, system_net, network_get_listen_timeout, uint16_t(network_handle_t, uint32_t, void*))
   d4c38:	b508      	push	{r3, lr}
   d4c3a:	4b02      	ldr	r3, [pc, #8]	; (d4c44 <network_get_listen_timeout+0xc>)
   d4c3c:	681b      	ldr	r3, [r3, #0]
   d4c3e:	6b5b      	ldr	r3, [r3, #52]	; 0x34
   d4c40:	9301      	str	r3, [sp, #4]
   d4c42:	bd08      	pop	{r3, pc}
   d4c44:	00030240 	.word	0x00030240

000d4c48 <set_system_mode>:
#endif

DYNALIB_BEGIN(system)

DYNALIB_FN(0, system, system_mode, System_Mode_TypeDef(void))
DYNALIB_FN(1, system, set_system_mode, void(System_Mode_TypeDef))
   d4c48:	b508      	push	{r3, lr}
   d4c4a:	4b02      	ldr	r3, [pc, #8]	; (d4c54 <set_system_mode+0xc>)
   d4c4c:	681b      	ldr	r3, [r3, #0]
   d4c4e:	685b      	ldr	r3, [r3, #4]
   d4c50:	9301      	str	r3, [sp, #4]
   d4c52:	bd08      	pop	{r3, pc}
   d4c54:	00030220 	.word	0x00030220

000d4c58 <system_delay_ms>:

DYNALIB_FN(2, system, set_ymodem_serial_flash_update_handler, void(ymodem_serial_flash_update_handler))
DYNALIB_FN(3, system, system_firmwareUpdate, bool(Stream*, void*))
DYNALIB_FN(4, system, system_fileTransfer, bool(system_file_transfer_t*, void*))

DYNALIB_FN(5, system, system_delay_ms, void(unsigned long, bool))
   d4c58:	b508      	push	{r3, lr}
   d4c5a:	4b02      	ldr	r3, [pc, #8]	; (d4c64 <system_delay_ms+0xc>)
   d4c5c:	681b      	ldr	r3, [r3, #0]
   d4c5e:	695b      	ldr	r3, [r3, #20]
   d4c60:	9301      	str	r3, [sp, #4]
   d4c62:	bd08      	pop	{r3, pc}
   d4c64:	00030220 	.word	0x00030220

000d4c68 <system_ctrl_set_app_request_handler>:
DYNALIB_FN(BASE_IDX + 6, system, led_pattern_period, uint16_t(int, int, void*))
DYNALIB_FN(BASE_IDX + 7, system, system_set_tester_handlers, int(system_tester_handlers_t*, void*))
DYNALIB_FN(BASE_IDX + 8, system, system_format_diag_data, int(const uint16_t*, size_t, unsigned, appender_fn, void*, void*))

// Control requests
DYNALIB_FN(BASE_IDX + 9, system, system_ctrl_set_app_request_handler, int(ctrl_request_handler_fn, void*))
   d4c68:	b508      	push	{r3, lr}
   d4c6a:	4b03      	ldr	r3, [pc, #12]	; (d4c78 <system_ctrl_set_app_request_handler+0x10>)
   d4c6c:	681b      	ldr	r3, [r3, #0]
   d4c6e:	f8d3 3088 	ldr.w	r3, [r3, #136]	; 0x88
   d4c72:	9301      	str	r3, [sp, #4]
   d4c74:	bd08      	pop	{r3, pc}
   d4c76:	0000      	.short	0x0000
   d4c78:	00030220 	.word	0x00030220

000d4c7c <system_ctrl_set_result>:
DYNALIB_FN(BASE_IDX + 10, system, system_ctrl_alloc_reply_data, int(ctrl_request*, size_t, void*))
DYNALIB_FN(BASE_IDX + 11, system, system_ctrl_free_request_data, void(ctrl_request*, void*))
DYNALIB_FN(BASE_IDX + 12, system, system_ctrl_set_result, void(ctrl_request*, int, ctrl_completion_handler_fn, void*, void*))
   d4c7c:	b508      	push	{r3, lr}
   d4c7e:	4b03      	ldr	r3, [pc, #12]	; (d4c8c <system_ctrl_set_result+0x10>)
   d4c80:	681b      	ldr	r3, [r3, #0]
   d4c82:	f8d3 3094 	ldr.w	r3, [r3, #148]	; 0x94
   d4c86:	9301      	str	r3, [sp, #4]
   d4c88:	bd08      	pop	{r3, pc}
   d4c8a:	0000      	.short	0x0000
   d4c8c:	00030220 	.word	0x00030220

000d4c90 <malloc>:
#include <assert.h>
#endif

DYNALIB_BEGIN(rt)

DYNALIB_FN(0, rt, malloc, void*(size_t))
   d4c90:	b508      	push	{r3, lr}
   d4c92:	4b02      	ldr	r3, [pc, #8]	; (d4c9c <malloc+0xc>)
   d4c94:	681b      	ldr	r3, [r3, #0]
   d4c96:	681b      	ldr	r3, [r3, #0]
   d4c98:	9301      	str	r3, [sp, #4]
   d4c9a:	bd08      	pop	{r3, pc}
   d4c9c:	0003021c 	.word	0x0003021c

000d4ca0 <free>:
DYNALIB_FN(1, rt, free, void(void*))
   d4ca0:	b508      	push	{r3, lr}
   d4ca2:	4b02      	ldr	r3, [pc, #8]	; (d4cac <free+0xc>)
   d4ca4:	681b      	ldr	r3, [r3, #0]
   d4ca6:	685b      	ldr	r3, [r3, #4]
   d4ca8:	9301      	str	r3, [sp, #4]
   d4caa:	bd08      	pop	{r3, pc}
   d4cac:	0003021c 	.word	0x0003021c

000d4cb0 <vsnprintf>:
DYNALIB_FN(4, rt, siprintf, int(char*, const char*, ...))
DYNALIB_FN(5, rt, sscanf, int(const char*, const char*, ...))
DYNALIB_FN(6, rt, siscanf, int(const char*, const char*, ...))
DYNALIB_FN(7, rt, snprintf, int(char*, size_t, const char*, ...))
DYNALIB_FN(8, rt, sniprintf, int(char*, size_t, const char*, ...))
DYNALIB_FN(9, rt, vsnprintf, int(char*, size_t, const char*, va_list))
   d4cb0:	b508      	push	{r3, lr}
   d4cb2:	4b02      	ldr	r3, [pc, #8]	; (d4cbc <vsnprintf+0xc>)
   d4cb4:	681b      	ldr	r3, [r3, #0]
   d4cb6:	6a5b      	ldr	r3, [r3, #36]	; 0x24
   d4cb8:	9301      	str	r3, [sp, #4]
   d4cba:	bd08      	pop	{r3, pc}
   d4cbc:	0003021c 	.word	0x0003021c

000d4cc0 <_ZN5spark12NetworkClass7connectEj>:
        return Network;
    }
}

void NetworkClass::connect(unsigned flags) {
    network_connect(*this, flags, 0, nullptr);
   d4cc0:	2300      	movs	r3, #0
   d4cc2:	461a      	mov	r2, r3
   d4cc4:	6840      	ldr	r0, [r0, #4]
   d4cc6:	f7ff bf6f 	b.w	d4ba8 <network_connect>

000d4cca <_ZN5spark12NetworkClass10disconnectEv>:
}

void NetworkClass::disconnect() {
    network_disconnect(*this, NETWORK_DISCONNECT_REASON_USER, nullptr);
   d4cca:	2200      	movs	r2, #0
   d4ccc:	2102      	movs	r1, #2
   d4cce:	6840      	ldr	r0, [r0, #4]
   d4cd0:	f7ff bf7a 	b.w	d4bc8 <network_disconnect>

000d4cd4 <_ZN5spark12NetworkClass10connectingEv>:
}

bool NetworkClass::connecting() {
    return network_connecting(*this, 0, nullptr);
   d4cd4:	2200      	movs	r2, #0
   d4cd6:	4611      	mov	r1, r2
   d4cd8:	6840      	ldr	r0, [r0, #4]
   d4cda:	f7ff bf6d 	b.w	d4bb8 <network_connecting>

000d4cde <_ZN5spark12NetworkClass5readyEv>:
}

bool NetworkClass::ready() {
    return network_ready(*this, 0, nullptr);
   d4cde:	2200      	movs	r2, #0
   d4ce0:	4611      	mov	r1, r2
   d4ce2:	6840      	ldr	r0, [r0, #4]
   d4ce4:	f7ff bf78 	b.w	d4bd8 <network_ready>

000d4ce8 <_ZN5spark12NetworkClass2onEv>:
}

void NetworkClass::on() {
    network_on(*this, 0, 0, nullptr);
   d4ce8:	2300      	movs	r3, #0
   d4cea:	461a      	mov	r2, r3
   d4cec:	4619      	mov	r1, r3
   d4cee:	6840      	ldr	r0, [r0, #4]
   d4cf0:	f7ff bf7a 	b.w	d4be8 <network_on>

000d4cf4 <_ZN5spark12NetworkClass3offEv>:
}

void NetworkClass::off() {
    network_off(*this, 0, 0, nullptr);
   d4cf4:	2300      	movs	r3, #0
   d4cf6:	461a      	mov	r2, r3
   d4cf8:	4619      	mov	r1, r3
   d4cfa:	6840      	ldr	r0, [r0, #4]
   d4cfc:	f7ff bf7c 	b.w	d4bf8 <network_off>

000d4d00 <_ZN5spark12NetworkClass6listenEb>:
}

void NetworkClass::listen(bool begin) {
    network_listen(*this, begin ? 0 : 1, nullptr);
   d4d00:	2200      	movs	r2, #0
   d4d02:	f081 0101 	eor.w	r1, r1, #1
   d4d06:	6840      	ldr	r0, [r0, #4]
   d4d08:	f7ff bf7e 	b.w	d4c08 <network_listen>

000d4d0c <_ZN5spark12NetworkClass16setListenTimeoutEt>:
}

void NetworkClass::setListenTimeout(uint16_t timeout) {
    network_set_listen_timeout(*this, timeout, nullptr);
   d4d0c:	2200      	movs	r2, #0
   d4d0e:	6840      	ldr	r0, [r0, #4]
   d4d10:	f7ff bf8a 	b.w	d4c28 <network_set_listen_timeout>

000d4d14 <_ZN5spark12NetworkClass16getListenTimeoutEv>:
}

uint16_t NetworkClass::getListenTimeout() {
    return network_get_listen_timeout(*this, 0, nullptr);
   d4d14:	2200      	movs	r2, #0
   d4d16:	4611      	mov	r1, r2
   d4d18:	6840      	ldr	r0, [r0, #4]
   d4d1a:	f7ff bf8d 	b.w	d4c38 <network_get_listen_timeout>

000d4d1e <_ZN5spark12NetworkClass9listeningEv>:
}

bool NetworkClass::listening() {
    return network_listening(*this, 0, nullptr);
   d4d1e:	2200      	movs	r2, #0
   d4d20:	4611      	mov	r1, r2
   d4d22:	6840      	ldr	r0, [r0, #4]
   d4d24:	f7ff bf78 	b.w	d4c18 <network_listening>

000d4d28 <_ZN5spark12NetworkClass7resolveEPKc>:
}

IPAddress NetworkClass::resolve(const char* name) {
   d4d28:	e92d 43f0 	stmdb	sp!, {r4, r5, r6, r7, r8, r9, lr}
    IPAddress addr;
#if HAL_USE_INET_HAL_POSIX
    struct addrinfo *ai = nullptr;
   d4d2c:	2400      	movs	r4, #0

bool NetworkClass::listening() {
    return network_listening(*this, 0, nullptr);
}

IPAddress NetworkClass::resolve(const char* name) {
   d4d2e:	b095      	sub	sp, #84	; 0x54
   d4d30:	4616      	mov	r6, r2
   d4d32:	460d      	mov	r5, r1
   d4d34:	4607      	mov	r7, r0
    IPAddress addr;
   d4d36:	f000 faad 	bl	d5294 <_ZN9IPAddressC1Ev>
#if HAL_USE_INET_HAL_POSIX
    struct addrinfo *ai = nullptr;
    struct addrinfo hints = {};
   d4d3a:	4621      	mov	r1, r4
   d4d3c:	2220      	movs	r2, #32
   d4d3e:	a80c      	add	r0, sp, #48	; 0x30
}

IPAddress NetworkClass::resolve(const char* name) {
    IPAddress addr;
#if HAL_USE_INET_HAL_POSIX
    struct addrinfo *ai = nullptr;
   d4d40:	9400      	str	r4, [sp, #0]
    struct addrinfo hints = {};
   d4d42:	f000 fe0e 	bl	d5962 <memset>
    hints.ai_flags = AI_ADDRCONFIG;
   d4d46:	2340      	movs	r3, #64	; 0x40
   d4d48:	930c      	str	r3, [sp, #48]	; 0x30
    hints.ai_family = AF_UNSPEC;
    const int r = getaddrinfo(name, nullptr, &hints, &ai);
   d4d4a:	4621      	mov	r1, r4
   d4d4c:	466b      	mov	r3, sp
   d4d4e:	aa0c      	add	r2, sp, #48	; 0x30
   d4d50:	4630      	mov	r0, r6
   d4d52:	f7ff ff19 	bl	d4b88 <netdb_getaddrinfo>
    if (!r) {
   d4d56:	4604      	mov	r4, r0
   d4d58:	2800      	cmp	r0, #0
   d4d5a:	d144      	bne.n	d4de6 <_ZN5spark12NetworkClass7resolveEPKc+0xbe>
        bool ok = false;
        // This is not really needed if AI_ADDRCONFIG is properly supported
        bool ipv4 = network_ready(*this, NETWORK_READY_TYPE_IPV4, nullptr);
   d4d5c:	4602      	mov	r2, r0
   d4d5e:	2101      	movs	r1, #1
   d4d60:	6868      	ldr	r0, [r5, #4]
   d4d62:	f7ff ff39 	bl	d4bd8 <network_ready>
        bool ipv6 = network_ready(*this, NETWORK_READY_TYPE_IPV6, nullptr);
   d4d66:	2102      	movs	r1, #2
    hints.ai_family = AF_UNSPEC;
    const int r = getaddrinfo(name, nullptr, &hints, &ai);
    if (!r) {
        bool ok = false;
        // This is not really needed if AI_ADDRCONFIG is properly supported
        bool ipv4 = network_ready(*this, NETWORK_READY_TYPE_IPV4, nullptr);
   d4d68:	4680      	mov	r8, r0
        bool ipv6 = network_ready(*this, NETWORK_READY_TYPE_IPV6, nullptr);
   d4d6a:	4622      	mov	r2, r4
   d4d6c:	6868      	ldr	r0, [r5, #4]
   d4d6e:	f7ff ff33 	bl	d4bd8 <network_ready>
        for (auto cur = ai; cur != nullptr && !ok; cur = cur->ai_next) {
   d4d72:	9e00      	ldr	r6, [sp, #0]
    const int r = getaddrinfo(name, nullptr, &hints, &ai);
    if (!r) {
        bool ok = false;
        // This is not really needed if AI_ADDRCONFIG is properly supported
        bool ipv4 = network_ready(*this, NETWORK_READY_TYPE_IPV4, nullptr);
        bool ipv6 = network_ready(*this, NETWORK_READY_TYPE_IPV6, nullptr);
   d4d74:	4681      	mov	r9, r0
    struct addrinfo hints = {};
    hints.ai_flags = AI_ADDRCONFIG;
    hints.ai_family = AF_UNSPEC;
    const int r = getaddrinfo(name, nullptr, &hints, &ai);
    if (!r) {
        bool ok = false;
   d4d76:	4621      	mov	r1, r4
        // This is not really needed if AI_ADDRCONFIG is properly supported
        bool ipv4 = network_ready(*this, NETWORK_READY_TYPE_IPV4, nullptr);
        bool ipv6 = network_ready(*this, NETWORK_READY_TYPE_IPV6, nullptr);
        for (auto cur = ai; cur != nullptr && !ok; cur = cur->ai_next) {
   d4d78:	2e00      	cmp	r6, #0
   d4d7a:	d034      	beq.n	d4de6 <_ZN5spark12NetworkClass7resolveEPKc+0xbe>
   d4d7c:	2900      	cmp	r1, #0
   d4d7e:	d132      	bne.n	d4de6 <_ZN5spark12NetworkClass7resolveEPKc+0xbe>
            // NOTE: using only the first entry that matches the current state of IPv4/IPv6 connectivity
            switch (cur->ai_family) {
   d4d80:	6873      	ldr	r3, [r6, #4]
   d4d82:	2b02      	cmp	r3, #2
   d4d84:	d002      	beq.n	d4d8c <_ZN5spark12NetworkClass7resolveEPKc+0x64>
   d4d86:	2b0a      	cmp	r3, #10
   d4d88:	d009      	beq.n	d4d9e <_ZN5spark12NetworkClass7resolveEPKc+0x76>
   d4d8a:	e02a      	b.n	d4de2 <_ZN5spark12NetworkClass7resolveEPKc+0xba>
                case AF_INET: {
                    if (!ipv4) {
   d4d8c:	f1b8 0f00 	cmp.w	r8, #0
   d4d90:	d027      	beq.n	d4de2 <_ZN5spark12NetworkClass7resolveEPKc+0xba>
                        continue;
                    }
                    // NOTE: HAL_IPAddress is little-endian
                    auto in = (struct sockaddr_in*)cur->ai_addr;
                    addr = (const uint8_t*)(&in->sin_addr.s_addr);
   d4d92:	6971      	ldr	r1, [r6, #20]
   d4d94:	4638      	mov	r0, r7
   d4d96:	3104      	adds	r1, #4
   d4d98:	f000 faa9 	bl	d52ee <_ZN9IPAddressaSEPKh>
   d4d9c:	e020      	b.n	d4de0 <_ZN5spark12NetworkClass7resolveEPKc+0xb8>
                    ok = true;
                    break;
                }
                case AF_INET6: {
                    if (!ipv6) {
   d4d9e:	f1b9 0f00 	cmp.w	r9, #0
   d4da2:	d01e      	beq.n	d4de2 <_ZN5spark12NetworkClass7resolveEPKc+0xba>
                        continue;
                    }
                    auto in6 = (struct sockaddr_in6*)cur->ai_addr;
   d4da4:	6974      	ldr	r4, [r6, #20]
                    HAL_IPAddress a = {};
   d4da6:	2211      	movs	r2, #17
   d4da8:	a801      	add	r0, sp, #4
   d4daa:	f000 fdda 	bl	d5962 <memset>
                    a.v = 6;
   d4dae:	2306      	movs	r3, #6
   d4db0:	f88d 3014 	strb.w	r3, [sp, #20]
                    memcpy(a.ipv6, in6->sin6_addr.s6_addr, sizeof(a.ipv6));
   d4db4:	ad01      	add	r5, sp, #4
   d4db6:	f104 0308 	add.w	r3, r4, #8
   d4dba:	3418      	adds	r4, #24
   d4dbc:	6818      	ldr	r0, [r3, #0]
   d4dbe:	6859      	ldr	r1, [r3, #4]
   d4dc0:	462a      	mov	r2, r5
   d4dc2:	c203      	stmia	r2!, {r0, r1}
   d4dc4:	3308      	adds	r3, #8
   d4dc6:	42a3      	cmp	r3, r4
   d4dc8:	4615      	mov	r5, r2
   d4dca:	d1f7      	bne.n	d4dbc <_ZN5spark12NetworkClass7resolveEPKc+0x94>
                    addr = IPAddress(a);
   d4dcc:	a901      	add	r1, sp, #4
   d4dce:	a806      	add	r0, sp, #24

/**
 * The IP address stored in host order.
 *
 */
class IPAddress : public Printable {
   d4dd0:	ad07      	add	r5, sp, #28
   d4dd2:	f000 fa6d 	bl	d52b0 <_ZN9IPAddressC1ERK16_HAL_IPAddress_t>
   d4dd6:	cd0f      	ldmia	r5!, {r0, r1, r2, r3}
   d4dd8:	1d3c      	adds	r4, r7, #4
   d4dda:	c40f      	stmia	r4!, {r0, r1, r2, r3}
   d4ddc:	682b      	ldr	r3, [r5, #0]
   d4dde:	7023      	strb	r3, [r4, #0]
                    ok = true;
   d4de0:	2101      	movs	r1, #1
    if (!r) {
        bool ok = false;
        // This is not really needed if AI_ADDRCONFIG is properly supported
        bool ipv4 = network_ready(*this, NETWORK_READY_TYPE_IPV4, nullptr);
        bool ipv6 = network_ready(*this, NETWORK_READY_TYPE_IPV6, nullptr);
        for (auto cur = ai; cur != nullptr && !ok; cur = cur->ai_next) {
   d4de2:	69f6      	ldr	r6, [r6, #28]
   d4de4:	e7c8      	b.n	d4d78 <_ZN5spark12NetworkClass7resolveEPKc+0x50>
                    break;
                }
            }
        }
    }
    freeaddrinfo(ai);
   d4de6:	9800      	ldr	r0, [sp, #0]
   d4de8:	f7ff fec6 	bl	d4b78 <netdb_freeaddrinfo>
    return Cellular.resolve(name);
#endif // Wiring_Cellular

#endif // HAL_USE_INET_HAL_POSIX
    return addr;
}
   d4dec:	4638      	mov	r0, r7
   d4dee:	b015      	add	sp, #84	; 0x54
   d4df0:	e8bd 83f0 	ldmia.w	sp!, {r4, r5, r6, r7, r8, r9, pc}

000d4df4 <_GLOBAL__sub_I__ZN5spark7NetworkE>:
    static NetworkClass& from(network_interface_t nif);

    virtual IPAddress resolve(const char* name);

    explicit NetworkClass(network_interface_t iface)
            : iface_(iface) {
   d4df4:	4b02      	ldr	r3, [pc, #8]	; (d4e00 <_GLOBAL__sub_I__ZN5spark7NetworkE+0xc>)
   d4df6:	4a03      	ldr	r2, [pc, #12]	; (d4e04 <_GLOBAL__sub_I__ZN5spark7NetworkE+0x10>)
   d4df8:	601a      	str	r2, [r3, #0]
   d4dfa:	2200      	movs	r2, #0
   d4dfc:	605a      	str	r2, [r3, #4]
   d4dfe:	4770      	bx	lr
   d4e00:	2003e3f4 	.word	0x2003e3f4
   d4e04:	000d5a50 	.word	0x000d5a50

000d4e08 <_ZN5spark9WiFiClass5readyEv>:
    bool connecting(void) {
        return network_connecting(*this, 0, NULL);
    }

    bool ready(void) {
        return network_ready(*this, 0, NULL);
   d4e08:	2200      	movs	r2, #0
   d4e0a:	4611      	mov	r1, r2
   d4e0c:	6840      	ldr	r0, [r0, #4]
   d4e0e:	f7ff bee3 	b.w	d4bd8 <network_ready>

000d4e12 <_ZN5spark9WiFiClass9listeningEv>:
    uint16_t getListenTimeout(void) {
        return network_get_listen_timeout(*this, 0, NULL);
    }

    bool listening(void) {
        return network_listening(*this, 0, NULL);
   d4e12:	2200      	movs	r2, #0
   d4e14:	4611      	mov	r1, r2
   d4e16:	6840      	ldr	r0, [r0, #4]
   d4e18:	f7ff befe 	b.w	d4c18 <network_listening>

000d4e1c <_ZN5spark9WiFiClass16getListenTimeoutEv>:
        network_set_listen_timeout(*this, timeout, NULL);
    }
    inline void setListenTimeout(std::chrono::seconds s) { setListenTimeout(s.count()); }

    uint16_t getListenTimeout(void) {
        return network_get_listen_timeout(*this, 0, NULL);
   d4e1c:	2200      	movs	r2, #0
   d4e1e:	4611      	mov	r1, r2
   d4e20:	6840      	ldr	r0, [r0, #4]
   d4e22:	f7ff bf09 	b.w	d4c38 <network_get_listen_timeout>

000d4e26 <_ZN5spark9WiFiClass16setListenTimeoutEt>:
    void listen(bool begin=true) {
        network_listen(*this, begin ? 0 : 1, NULL);
    }

    void setListenTimeout(uint16_t timeout) {
        network_set_listen_timeout(*this, timeout, NULL);
   d4e26:	2200      	movs	r2, #0
   d4e28:	6840      	ldr	r0, [r0, #4]
   d4e2a:	f7ff befd 	b.w	d4c28 <network_set_listen_timeout>

000d4e2e <_ZN5spark9WiFiClass6listenEb>:
    void off(void) {
        network_off(*this, 0, 0, NULL);
    }

    void listen(bool begin=true) {
        network_listen(*this, begin ? 0 : 1, NULL);
   d4e2e:	2200      	movs	r2, #0
   d4e30:	f081 0101 	eor.w	r1, r1, #1
   d4e34:	6840      	ldr	r0, [r0, #4]
   d4e36:	f7ff bee7 	b.w	d4c08 <network_listen>

000d4e3a <_ZN5spark9WiFiClass3offEv>:
    void on(void) {
        network_on(*this, 0, 0, NULL);
    }

    void off(void) {
        network_off(*this, 0, 0, NULL);
   d4e3a:	2300      	movs	r3, #0
   d4e3c:	461a      	mov	r2, r3
   d4e3e:	4619      	mov	r1, r3
   d4e40:	6840      	ldr	r0, [r0, #4]
   d4e42:	f7ff bed9 	b.w	d4bf8 <network_off>

000d4e46 <_ZN5spark9WiFiClass2onEv>:
    bool ready(void) {
        return network_ready(*this, 0, NULL);
    }

    void on(void) {
        network_on(*this, 0, 0, NULL);
   d4e46:	2300      	movs	r3, #0
   d4e48:	461a      	mov	r2, r3
   d4e4a:	4619      	mov	r1, r3
   d4e4c:	6840      	ldr	r0, [r0, #4]
   d4e4e:	f7ff becb 	b.w	d4be8 <network_on>

000d4e52 <_ZN5spark9WiFiClass10connectingEv>:
    void disconnect(void) {
        network_disconnect(*this, NETWORK_DISCONNECT_REASON_USER, NULL);
    }

    bool connecting(void) {
        return network_connecting(*this, 0, NULL);
   d4e52:	2200      	movs	r2, #0
   d4e54:	4611      	mov	r1, r2
   d4e56:	6840      	ldr	r0, [r0, #4]
   d4e58:	f7ff beae 	b.w	d4bb8 <network_connecting>

000d4e5c <_ZN5spark9WiFiClass10disconnectEv>:
    void connect(unsigned flags=0) {
        network_connect(*this, flags, 0, NULL);
    }

    void disconnect(void) {
        network_disconnect(*this, NETWORK_DISCONNECT_REASON_USER, NULL);
   d4e5c:	2200      	movs	r2, #0
   d4e5e:	2102      	movs	r1, #2
   d4e60:	6840      	ldr	r0, [r0, #4]
   d4e62:	f7ff beb1 	b.w	d4bc8 <network_disconnect>

000d4e66 <_ZN5spark9WiFiClass7connectEj>:
    uint32_t ping(IPAddress remoteIP, uint8_t nTries) {
        return inet_ping(&remoteIP.raw(), *this, nTries, NULL);
    }

    void connect(unsigned flags=0) {
        network_connect(*this, flags, 0, NULL);
   d4e66:	2300      	movs	r3, #0
   d4e68:	461a      	mov	r2, r3
   d4e6a:	6840      	ldr	r0, [r0, #4]
   d4e6c:	f7ff be9c 	b.w	d4ba8 <network_connect>

000d4e70 <_GLOBAL__sub_I__ZN10WiFiSignalC2ERK21wlan_connected_info_t>:
   d4e70:	4b02      	ldr	r3, [pc, #8]	; (d4e7c <_GLOBAL__sub_I__ZN10WiFiSignalC2ERK21wlan_connected_info_t+0xc>)
   d4e72:	2204      	movs	r2, #4
   d4e74:	605a      	str	r2, [r3, #4]
        wlan_set_ipaddress_source(source, true, NULL);
    }

public:
    WiFiClass() :
            NetworkClass(NETWORK_INTERFACE_WIFI_STA) {
   d4e76:	4a02      	ldr	r2, [pc, #8]	; (d4e80 <_GLOBAL__sub_I__ZN10WiFiSignalC2ERK21wlan_connected_info_t+0x10>)
   d4e78:	601a      	str	r2, [r3, #0]
   d4e7a:	4770      	bx	lr
   d4e7c:	2003e3fc 	.word	0x2003e3fc
   d4e80:	000d5a84 	.word	0x000d5a84

000d4e84 <_ZN5spark9MeshClass9listeningEv>:
    uint16_t getListenTimeout(void) {
        return network_get_listen_timeout(*this, 0, NULL);
    }

    bool listening(void) {
        return network_listening(*this, 0, NULL);
   d4e84:	2200      	movs	r2, #0
   d4e86:	4611      	mov	r1, r2
   d4e88:	6840      	ldr	r0, [r0, #4]
   d4e8a:	f7ff bec5 	b.w	d4c18 <network_listening>

000d4e8e <_ZN5spark9MeshClass16getListenTimeoutEv>:
    void setListenTimeout(uint16_t timeout) {
        network_set_listen_timeout(*this, timeout, NULL);
    }

    uint16_t getListenTimeout(void) {
        return network_get_listen_timeout(*this, 0, NULL);
   d4e8e:	2200      	movs	r2, #0
   d4e90:	4611      	mov	r1, r2
   d4e92:	6840      	ldr	r0, [r0, #4]
   d4e94:	f7ff bed0 	b.w	d4c38 <network_get_listen_timeout>

000d4e98 <_ZN5spark9MeshClass16setListenTimeoutEt>:
    void listen(bool begin=true) {
        network_listen(*this, begin ? 0 : 1, NULL);
    }

    void setListenTimeout(uint16_t timeout) {
        network_set_listen_timeout(*this, timeout, NULL);
   d4e98:	2200      	movs	r2, #0
   d4e9a:	6840      	ldr	r0, [r0, #4]
   d4e9c:	f7ff bec4 	b.w	d4c28 <network_set_listen_timeout>

000d4ea0 <_ZN5spark9MeshClass6listenEb>:
    void disconnect() {
        network_disconnect(*this, NETWORK_DISCONNECT_REASON_USER, NULL);
    }

    void listen(bool begin=true) {
        network_listen(*this, begin ? 0 : 1, NULL);
   d4ea0:	2200      	movs	r2, #0
   d4ea2:	f081 0101 	eor.w	r1, r1, #1
   d4ea6:	6840      	ldr	r0, [r0, #4]
   d4ea8:	f7ff beae 	b.w	d4c08 <network_listen>

000d4eac <_ZN5spark9MeshClass3offEv>:
    void on() {
        network_on(*this, 0, 0, NULL);
    }

    void off() {
        network_off(*this, 1, 0, NULL);
   d4eac:	2300      	movs	r3, #0
   d4eae:	461a      	mov	r2, r3
   d4eb0:	2101      	movs	r1, #1
   d4eb2:	6840      	ldr	r0, [r0, #4]
   d4eb4:	f7ff bea0 	b.w	d4bf8 <network_off>

000d4eb8 <_ZN5spark9MeshClass2onEv>:
    MeshClass() :
            NetworkClass(NETWORK_INTERFACE_MESH) {
    }

    void on() {
        network_on(*this, 0, 0, NULL);
   d4eb8:	2300      	movs	r3, #0
   d4eba:	461a      	mov	r2, r3
   d4ebc:	4619      	mov	r1, r3
   d4ebe:	6840      	ldr	r0, [r0, #4]
   d4ec0:	f7ff be92 	b.w	d4be8 <network_on>

000d4ec4 <_ZN5spark9MeshClass5readyEv>:
    bool listening(void) {
        return network_listening(*this, 0, NULL);
    }

    bool ready() {
        return network_ready(*this, 0,  NULL);
   d4ec4:	2200      	movs	r2, #0
   d4ec6:	4611      	mov	r1, r2
   d4ec8:	6840      	ldr	r0, [r0, #4]
   d4eca:	f7ff be85 	b.w	d4bd8 <network_ready>

000d4ece <_ZN5spark9MeshClass10connectingEv>:
    void connect(unsigned flags=0) {
        network_connect(*this, flags, 0, NULL);
    }

    bool connecting(void) {
        return network_connecting(*this, 0, NULL);
   d4ece:	2200      	movs	r2, #0
   d4ed0:	4611      	mov	r1, r2
   d4ed2:	6840      	ldr	r0, [r0, #4]
   d4ed4:	f7ff be70 	b.w	d4bb8 <network_connecting>

000d4ed8 <_ZN5spark9MeshClass10disconnectEv>:
    }

    void disconnect() {
        network_disconnect(*this, NETWORK_DISCONNECT_REASON_USER, NULL);
   d4ed8:	2200      	movs	r2, #0
   d4eda:	2102      	movs	r1, #2
   d4edc:	6840      	ldr	r0, [r0, #4]
   d4ede:	f7ff be73 	b.w	d4bc8 <network_disconnect>

000d4ee2 <_ZN5spark9MeshClass7connectEj>:
    void off() {
        network_off(*this, 1, 0, NULL);
    }

    void connect(unsigned flags=0) {
        network_connect(*this, flags, 0, NULL);
   d4ee2:	2300      	movs	r3, #0
   d4ee4:	461a      	mov	r2, r3
   d4ee6:	6840      	ldr	r0, [r0, #4]
   d4ee8:	f7ff be5e 	b.w	d4ba8 <network_connect>

000d4eec <_ZNKSt14default_deleteIN6Thread4DataEEclEPS1_.isra.6>:
	       enable_if<is_convertible<_Up*, _Tp*>::value>::type>
        default_delete(const default_delete<_Up>&) noexcept { }

      /// Calls @c delete @p __ptr
      void
      operator()(_Tp* __ptr) const
   d4eec:	b538      	push	{r3, r4, r5, lr}
      {
	static_assert(!is_void<_Tp>::value,
		      "can't delete pointer to incomplete type");
	static_assert(sizeof(_Tp)>0,
		      "can't delete pointer to incomplete type");
	delete __ptr;
   d4eee:	4605      	mov	r5, r0
   d4ef0:	b188      	cbz	r0, d4f16 <_ZNKSt14default_deleteIN6Thread4DataEEclEPS1_.isra.6+0x2a>

      /// Destructor, invokes the deleter if the stored pointer is not null.
      ~unique_ptr() noexcept
      {
	auto& __ptr = std::get<0>(_M_t);
	if (__ptr != nullptr)
   d4ef2:	6804      	ldr	r4, [r0, #0]
   d4ef4:	b14c      	cbz	r4, d4f0a <_ZNKSt14default_deleteIN6Thread4DataEEclEPS1_.isra.6+0x1e>

    _Function_base() : _M_manager(nullptr) { }

    ~_Function_base()
    {
      if (_M_manager)
   d4ef6:	68a3      	ldr	r3, [r4, #8]
   d4ef8:	b11b      	cbz	r3, d4f02 <_ZNKSt14default_deleteIN6Thread4DataEEclEPS1_.isra.6+0x16>
	_M_manager(_M_functor, _M_functor, __destroy_functor);
   d4efa:	2203      	movs	r2, #3
   d4efc:	4621      	mov	r1, r4
   d4efe:	4620      	mov	r0, r4
   d4f00:	4798      	blx	r3
      {
	static_assert(!is_void<_Tp>::value,
		      "can't delete pointer to incomplete type");
	static_assert(sizeof(_Tp)>0,
		      "can't delete pointer to incomplete type");
	delete __ptr;
   d4f02:	2110      	movs	r1, #16
   d4f04:	4620      	mov	r0, r4
   d4f06:	f000 fbc8 	bl	d569a <_ZdlPvj>
   d4f0a:	4628      	mov	r0, r5
   d4f0c:	2114      	movs	r1, #20
      }
   d4f0e:	e8bd 4038 	ldmia.w	sp!, {r3, r4, r5, lr}
      {
	static_assert(!is_void<_Tp>::value,
		      "can't delete pointer to incomplete type");
	static_assert(sizeof(_Tp)>0,
		      "can't delete pointer to incomplete type");
	delete __ptr;
   d4f12:	f000 bbc2 	b.w	d569a <_ZdlPvj>
   d4f16:	bd38      	pop	{r3, r4, r5, pc}

000d4f18 <_ZNKSt14default_deleteI3UDPEclEPS0_.isra.8.constprop.13>:
   d4f18:	b110      	cbz	r0, d4f20 <_ZNKSt14default_deleteI3UDPEclEPS0_.isra.8.constprop.13+0x8>
   d4f1a:	6803      	ldr	r3, [r0, #0]
   d4f1c:	685b      	ldr	r3, [r3, #4]
   d4f1e:	4718      	bx	r3
   d4f20:	4770      	bx	lr

000d4f22 <_ZN6ThreadD1Ev>:
    Thread(Thread&& thread)
        : d_(std::move(thread.d_))
    {
    }

    ~Thread()
   d4f22:	b510      	push	{r4, lr}
      }

      /// Return the stored pointer.
      pointer
      get() const noexcept
      { return std::get<0>(_M_t); }
   d4f24:	6803      	ldr	r3, [r0, #0]
   d4f26:	4604      	mov	r4, r0
        dispose();
    }

    void dispose()
    {
        if (!isValid())
   d4f28:	b1bb      	cbz	r3, d4f5a <_ZN6ThreadD1Ev+0x38>
        return isCurrent();
    }

    bool isCurrent() const
    {
        return isValid() && os_thread_is_current(d_->handle);
   d4f2a:	6858      	ldr	r0, [r3, #4]
   d4f2c:	f7ff fde4 	bl	d4af8 <os_thread_is_current>
   d4f30:	b978      	cbnz	r0, d4f52 <_ZN6ThreadD1Ev+0x30>
   d4f32:	6823      	ldr	r3, [r4, #0]

        // We shouldn't dispose of current thread
        if (isCurrent())
            return;

        if (!d_->exited) {
   d4f34:	7c5a      	ldrb	r2, [r3, #17]
   d4f36:	b912      	cbnz	r2, d4f3e <_ZN6ThreadD1Ev+0x1c>
        d_.reset();
    }

    bool join()
    {
        return isValid() && os_thread_join(d_->handle)==0;
   d4f38:	6858      	ldr	r0, [r3, #4]
   d4f3a:	f7ff fde5 	bl	d4b08 <os_thread_join>

        if (!d_->exited) {
            join();
        }

        os_thread_cleanup(d_->handle);
   d4f3e:	6823      	ldr	r3, [r4, #0]
   d4f40:	6858      	ldr	r0, [r3, #4]
   d4f42:	f7ff fde9 	bl	d4b18 <os_thread_cleanup>
#endif
    {
      // concept requirements
      __glibcxx_function_requires(_SGIAssignableConcept<_Tp>)

      _Tp __tmp = _GLIBCXX_MOVE(__a);
   d4f46:	6820      	ldr	r0, [r4, #0]
      __a = _GLIBCXX_MOVE(__b);
   d4f48:	2300      	movs	r3, #0
   d4f4a:	6023      	str	r3, [r4, #0]
      void
      reset(pointer __p = pointer()) noexcept
      {
	using std::swap;
	swap(std::get<0>(_M_t), __p);
	if (__p != pointer())
   d4f4c:	b128      	cbz	r0, d4f5a <_ZN6ThreadD1Ev+0x38>
	  get_deleter()(__p);
   d4f4e:	f7ff ffcd 	bl	d4eec <_ZNKSt14default_deleteIN6Thread4DataEEclEPS1_.isra.6>

      /// Destructor, invokes the deleter if the stored pointer is not null.
      ~unique_ptr() noexcept
      {
	auto& __ptr = std::get<0>(_M_t);
	if (__ptr != nullptr)
   d4f52:	6820      	ldr	r0, [r4, #0]
   d4f54:	b108      	cbz	r0, d4f5a <_ZN6ThreadD1Ev+0x38>
	  get_deleter()(__ptr);
   d4f56:	f7ff ffc9 	bl	d4eec <_ZNKSt14default_deleteIN6Thread4DataEEclEPS1_.isra.6>
    }

    ~Thread()
    {
        dispose();
    }
   d4f5a:	4620      	mov	r0, r4
   d4f5c:	bd10      	pop	{r4, pc}

000d4f5e <_ZN5spark11MeshPublishD1Ev>:
    virtual float getQualityValue() const {
        return 0.0f;
    }
};

class MeshPublish {
   d4f5e:	b538      	push	{r3, r4, r5, lr}
   d4f60:	4604      	mov	r4, r0

      /// Destructor, invokes the deleter if the stored pointer is not null.
      ~unique_ptr()
      {
	auto& __ptr = std::get<0>(_M_t);
	if (__ptr != nullptr)
   d4f62:	f8d0 01c4 	ldr.w	r0, [r0, #452]	; 0x1c4
   d4f66:	b108      	cbz	r0, d4f6c <_ZN5spark11MeshPublishD1Ev+0xe>
      void
      operator()(_Tp* __ptr) const
      {
	static_assert(sizeof(_Tp)>0,
		      "can't delete pointer to incomplete type");
	delete [] __ptr;
   d4f68:	f7ff f897 	bl	d409a <_ZdaPv>
        dispose();
    }

    void dispose()
    {
        if (handle_) {
   d4f6c:	f8d4 01c0 	ldr.w	r0, [r4, #448]	; 0x1c0
   d4f70:	b108      	cbz	r0, d4f76 <_ZN5spark11MeshPublishD1Ev+0x18>
            os_mutex_recursive_destroy(handle_);
   d4f72:	f7ff fde1 	bl	d4b38 <os_mutex_recursive_destroy>

      /// Destructor, invokes the deleter if the stored pointer is not null.
      ~unique_ptr() noexcept
      {
	auto& __ptr = std::get<0>(_M_t);
	if (__ptr != nullptr)
   d4f76:	f8d4 51bc 	ldr.w	r5, [r4, #444]	; 0x1bc
   d4f7a:	b135      	cbz	r5, d4f8a <_ZN5spark11MeshPublishD1Ev+0x2c>
      {
	static_assert(!is_void<_Tp>::value,
		      "can't delete pointer to incomplete type");
	static_assert(sizeof(_Tp)>0,
		      "can't delete pointer to incomplete type");
	delete __ptr;
   d4f7c:	4628      	mov	r0, r5
   d4f7e:	f7ff ffd0 	bl	d4f22 <_ZN6ThreadD1Ev>
   d4f82:	2104      	movs	r1, #4
   d4f84:	4628      	mov	r0, r5
   d4f86:	f000 fb88 	bl	d569a <_ZdlPvj>

      /// Destructor, invokes the deleter if the stored pointer is not null.
      ~unique_ptr() noexcept
      {
	auto& __ptr = std::get<0>(_M_t);
	if (__ptr != nullptr)
   d4f8a:	6820      	ldr	r0, [r4, #0]
   d4f8c:	b108      	cbz	r0, d4f92 <_ZN5spark11MeshPublishD1Ev+0x34>
	  get_deleter()(__ptr);
   d4f8e:	f7ff ffc3 	bl	d4f18 <_ZNKSt14default_deleteI3UDPEclEPS0_.isra.8.constprop.13>
   d4f92:	4620      	mov	r0, r4
   d4f94:	bd38      	pop	{r3, r4, r5, pc}
	...

000d4f98 <_ZN5spark9MeshClassD1Ev>:
    RecursiveMutex mutex_;
    std::unique_ptr<uint8_t[]> buffer_;
    std::atomic_bool exit_;
};

class MeshClass : public NetworkClass, public MeshPublish {
   d4f98:	b510      	push	{r4, lr}
   d4f9a:	4b04      	ldr	r3, [pc, #16]	; (d4fac <_ZN5spark9MeshClassD1Ev+0x14>)
   d4f9c:	4604      	mov	r4, r0
   d4f9e:	f840 3b08 	str.w	r3, [r0], #8
   d4fa2:	f7ff ffdc 	bl	d4f5e <_ZN5spark11MeshPublishD1Ev>
   d4fa6:	4620      	mov	r0, r4
   d4fa8:	bd10      	pop	{r4, pc}
   d4faa:	bf00      	nop
   d4fac:	000d5ab8 	.word	0x000d5ab8

000d4fb0 <_GLOBAL__sub_I__ZN5spark11MeshPublish13Subscriptions20event_handler_existsEPKcPFvS3_S3_EPvN17SubscriptionScope4EnumES3_>:

    return addr;
}

MeshClass Mesh;
} // namespace spark
   d4fb0:	b538      	push	{r3, r4, r5, lr}
   d4fb2:	4c0e      	ldr	r4, [pc, #56]	; (d4fec <_GLOBAL__sub_I__ZN5spark11MeshPublish13Subscriptions20event_handler_existsEPKcPFvS3_S3_EPvN17SubscriptionScope4EnumES3_+0x3c>)
   d4fb4:	4b0e      	ldr	r3, [pc, #56]	; (d4ff0 <_GLOBAL__sub_I__ZN5spark11MeshPublish13Subscriptions20event_handler_existsEPKcPFvS3_S3_EPvN17SubscriptionScope4EnumES3_+0x40>)
   d4fb6:	6023      	str	r3, [r4, #0]

  template<std::size_t _Idx, typename _Head>
    struct _Head_base<_Idx, _Head, false>
    {
      constexpr _Head_base()
      : _M_head_impl() { }
   d4fb8:	2500      	movs	r5, #0
   d4fba:	2302      	movs	r3, #2
     */
    RecursiveMutex(os_mutex_recursive_t handle) : handle_(handle) {}

    RecursiveMutex() : handle_(nullptr)
    {
        os_mutex_recursive_create(&handle_);
   d4fbc:	f504 70e4 	add.w	r0, r4, #456	; 0x1c8
   d4fc0:	6063      	str	r3, [r4, #4]
   d4fc2:	60a5      	str	r5, [r4, #8]
   d4fc4:	f8c4 51c4 	str.w	r5, [r4, #452]	; 0x1c4
    /**
     * Creates a shared mutex.
     */
    RecursiveMutex(os_mutex_recursive_t handle) : handle_(handle) {}

    RecursiveMutex() : handle_(nullptr)
   d4fc8:	f8c4 51c8 	str.w	r5, [r4, #456]	; 0x1c8
    {
        os_mutex_recursive_create(&handle_);
   d4fcc:	f7ff fdac 	bl	d4b28 <os_mutex_recursive_create>
public:
    MeshClass() :
            NetworkClass(NETWORK_INTERFACE_MESH) {
   d4fd0:	4b08      	ldr	r3, [pc, #32]	; (d4ff4 <_GLOBAL__sub_I__ZN5spark11MeshPublish13Subscriptions20event_handler_existsEPKcPFvS3_S3_EPvN17SubscriptionScope4EnumES3_+0x44>)
   d4fd2:	f8c4 51cc 	str.w	r5, [r4, #460]	; 0x1cc
      __atomic_base(const __atomic_base&) = delete;
      __atomic_base& operator=(const __atomic_base&) = delete;
      __atomic_base& operator=(const __atomic_base&) volatile = delete;

      // Requires __int_type convertible to _M_i.
      constexpr __atomic_base(__int_type __i) noexcept : _M_i (__i) { }
   d4fd6:	f884 51d0 	strb.w	r5, [r4, #464]	; 0x1d0
   d4fda:	6023      	str	r3, [r4, #0]
    }

    return addr;
}

MeshClass Mesh;
   d4fdc:	4620      	mov	r0, r4
   d4fde:	4a06      	ldr	r2, [pc, #24]	; (d4ff8 <_GLOBAL__sub_I__ZN5spark11MeshPublish13Subscriptions20event_handler_existsEPKcPFvS3_S3_EPvN17SubscriptionScope4EnumES3_+0x48>)
   d4fe0:	4906      	ldr	r1, [pc, #24]	; (d4ffc <_GLOBAL__sub_I__ZN5spark11MeshPublish13Subscriptions20event_handler_existsEPKcPFvS3_S3_EPvN17SubscriptionScope4EnumES3_+0x4c>)
} // namespace spark
   d4fe2:	e8bd 4038 	ldmia.w	sp!, {r3, r4, r5, lr}
    }

    return addr;
}

MeshClass Mesh;
   d4fe6:	f000 bb53 	b.w	d5690 <__aeabi_atexit>
   d4fea:	bf00      	nop
   d4fec:	2003e404 	.word	0x2003e404
   d4ff0:	000d5a50 	.word	0x000d5a50
   d4ff4:	000d5ab8 	.word	0x000d5ab8
   d4ff8:	2003dd8c 	.word	0x2003dd8c
   d4ffc:	000d4f99 	.word	0x000d4f99

000d5000 <_ZN11USARTSerialD1Ev>:
private:
  HAL_USART_Serial _serial;
  bool _blocking;
public:
  USARTSerial(HAL_USART_Serial serial, Ring_Buffer *rx_buffer, Ring_Buffer *tx_buffer);
  virtual ~USARTSerial() {};
   d5000:	4770      	bx	lr

000d5002 <_ZN11USARTSerial14blockOnOverrunEb>:
    HAL_USART_Half_Duplex(_serial, Enable);
}

void USARTSerial::blockOnOverrun(bool block)
{
  _blocking = block;
   d5002:	7441      	strb	r1, [r0, #17]
   d5004:	4770      	bx	lr

000d5006 <_ZN11USARTSerial17availableForWriteEv>:
}


int USARTSerial::availableForWrite(void)
{
   d5006:	b508      	push	{r3, lr}
  return std::max(0, (int)HAL_USART_Available_Data_For_Write(_serial));
   d5008:	7c00      	ldrb	r0, [r0, #16]
   d500a:	f7ff fd65 	bl	d4ad8 <HAL_USART_Available_Data_For_Write>
}
   d500e:	ea20 70e0 	bic.w	r0, r0, r0, asr #31
   d5012:	bd08      	pop	{r3, pc}

000d5014 <_ZN11USARTSerial9availableEv>:

int USARTSerial::available(void)
{
   d5014:	b508      	push	{r3, lr}
  return std::max(0, (int)HAL_USART_Available_Data(_serial));
   d5016:	7c00      	ldrb	r0, [r0, #16]
   d5018:	f7ff fd3e 	bl	d4a98 <HAL_USART_Available_Data>
}
   d501c:	ea20 70e0 	bic.w	r0, r0, r0, asr #31
   d5020:	bd08      	pop	{r3, pc}

000d5022 <_ZN11USARTSerial4peekEv>:

int USARTSerial::peek(void)
{
   d5022:	b508      	push	{r3, lr}
  return std::max(-1, (int)HAL_USART_Peek_Data(_serial));
   d5024:	7c00      	ldrb	r0, [r0, #16]
   d5026:	f7ff fd47 	bl	d4ab8 <HAL_USART_Peek_Data>
}
   d502a:	ea30 0020 	bics.w	r0, r0, r0, asr #32
   d502e:	bf28      	it	cs
   d5030:	f04f 30ff 	movcs.w	r0, #4294967295
   d5034:	bd08      	pop	{r3, pc}

000d5036 <_ZN11USARTSerial4readEv>:

int USARTSerial::read(void)
{
   d5036:	b508      	push	{r3, lr}
  return std::max(-1, (int)HAL_USART_Read_Data(_serial));
   d5038:	7c00      	ldrb	r0, [r0, #16]
   d503a:	f7ff fd35 	bl	d4aa8 <HAL_USART_Read_Data>
}
   d503e:	ea30 0020 	bics.w	r0, r0, r0, asr #32
   d5042:	bf28      	it	cs
   d5044:	f04f 30ff 	movcs.w	r0, #4294967295
   d5048:	bd08      	pop	{r3, pc}

000d504a <_ZN11USARTSerial5flushEv>:

void USARTSerial::flush()
{
  HAL_USART_Flush_Data(_serial);
   d504a:	7c00      	ldrb	r0, [r0, #16]
   d504c:	f7ff bd3c 	b.w	d4ac8 <HAL_USART_Flush_Data>

000d5050 <_ZN11USARTSerialD0Ev>:
   d5050:	b510      	push	{r4, lr}
   d5052:	2114      	movs	r1, #20
   d5054:	4604      	mov	r4, r0
   d5056:	f000 fb20 	bl	d569a <_ZdlPvj>
   d505a:	4620      	mov	r0, r4
   d505c:	bd10      	pop	{r4, pc}

000d505e <_ZN11USARTSerial5writeEh>:
}

size_t USARTSerial::write(uint8_t c)
{
   d505e:	b570      	push	{r4, r5, r6, lr}
  // attempt a write if blocking, or for non-blocking if there is room.
  if (_blocking || HAL_USART_Available_Data_For_Write(_serial) > 0) {
   d5060:	7c45      	ldrb	r5, [r0, #17]
{
  HAL_USART_Flush_Data(_serial);
}

size_t USARTSerial::write(uint8_t c)
{
   d5062:	4604      	mov	r4, r0
   d5064:	460e      	mov	r6, r1
  // attempt a write if blocking, or for non-blocking if there is room.
  if (_blocking || HAL_USART_Available_Data_For_Write(_serial) > 0) {
   d5066:	b925      	cbnz	r5, d5072 <_ZN11USARTSerial5writeEh+0x14>
   d5068:	7c00      	ldrb	r0, [r0, #16]
   d506a:	f7ff fd35 	bl	d4ad8 <HAL_USART_Available_Data_For_Write>
   d506e:	2800      	cmp	r0, #0
   d5070:	dd05      	ble.n	d507e <_ZN11USARTSerial5writeEh+0x20>
    // the HAL always blocks.
	  return HAL_USART_Write_Data(_serial, c);
   d5072:	4631      	mov	r1, r6
   d5074:	7c20      	ldrb	r0, [r4, #16]
  }
  return 0;
}
   d5076:	e8bd 4070 	ldmia.w	sp!, {r4, r5, r6, lr}
size_t USARTSerial::write(uint8_t c)
{
  // attempt a write if blocking, or for non-blocking if there is room.
  if (_blocking || HAL_USART_Available_Data_For_Write(_serial) > 0) {
    // the HAL always blocks.
	  return HAL_USART_Write_Data(_serial, c);
   d507a:	f7ff bd05 	b.w	d4a88 <HAL_USART_Write_Data>
  }
  return 0;
}
   d507e:	4628      	mov	r0, r5
   d5080:	bd70      	pop	{r4, r5, r6, pc}
	...

000d5084 <_ZN11USARTSerialC1E16HAL_USART_SerialP11Ring_BufferS2_>:
#include "spark_wiring_constants.h"
#include "module_info.h"

// Constructors ////////////////////////////////////////////////////////////////

USARTSerial::USARTSerial(HAL_USART_Serial serial, Ring_Buffer *rx_buffer, Ring_Buffer *tx_buffer)
   d5084:	b510      	push	{r4, lr}
   d5086:	4604      	mov	r4, r0
   d5088:	4608      	mov	r0, r1
   d508a:	4611      	mov	r1, r2
  protected:
    void setWriteError(int err = 1) { write_error = err; }
    size_t printf_impl(bool newline, const char* format, ...);

  public:
    Print() : write_error(0) {}
   d508c:	2200      	movs	r2, #0
   d508e:	6062      	str	r2, [r4, #4]
    virtual int available() = 0;
    virtual int read() = 0;
    virtual int peek() = 0;
    virtual void flush() = 0;

    Stream() {_timeout=1000;}
   d5090:	f44f 727a 	mov.w	r2, #1000	; 0x3e8
   d5094:	60a2      	str	r2, [r4, #8]
   d5096:	4a05      	ldr	r2, [pc, #20]	; (d50ac <_ZN11USARTSerialC1E16HAL_USART_SerialP11Ring_BufferS2_+0x28>)
   d5098:	6022      	str	r2, [r4, #0]
{
  _serial = serial;
  // Default is blocking mode
  _blocking = true;
   d509a:	2201      	movs	r2, #1

// Constructors ////////////////////////////////////////////////////////////////

USARTSerial::USARTSerial(HAL_USART_Serial serial, Ring_Buffer *rx_buffer, Ring_Buffer *tx_buffer)
{
  _serial = serial;
   d509c:	7420      	strb	r0, [r4, #16]
  // Default is blocking mode
  _blocking = true;
   d509e:	7462      	strb	r2, [r4, #17]
  HAL_USART_Init(serial, rx_buffer, tx_buffer);
   d50a0:	461a      	mov	r2, r3
   d50a2:	f7ff fce9 	bl	d4a78 <HAL_USART_Init>
}
   d50a6:	4620      	mov	r0, r4
   d50a8:	bd10      	pop	{r4, pc}
   d50aa:	bf00      	nop
   d50ac:	000d5aec 	.word	0x000d5aec

000d50b0 <_Z22__fetch_global_Serial1v>:
static Ring_Buffer* serial1_rx_buffer = NULL;
static Ring_Buffer* serial1_tx_buffer = NULL;
#endif

USARTSerial& __fetch_global_Serial1()
{
   d50b0:	b538      	push	{r3, r4, r5, lr}
#if ((MODULE_FUNCTION == MOD_FUNC_USER_PART) || (MODULE_FUNCTION == MOD_FUNC_MONO_FIRMWARE))
	static USARTSerial serial1(HAL_USART_SERIAL1, &serial1_rx_buffer, &serial1_tx_buffer);
   d50b2:	4d0c      	ldr	r5, [pc, #48]	; (d50e4 <_Z22__fetch_global_Serial1v+0x34>)
   d50b4:	6829      	ldr	r1, [r5, #0]
   d50b6:	f011 0401 	ands.w	r4, r1, #1
   d50ba:	d111      	bne.n	d50e0 <_Z22__fetch_global_Serial1v+0x30>
   d50bc:	4628      	mov	r0, r5
   d50be:	f7fe ffee 	bl	d409e <__cxa_guard_acquire>
   d50c2:	b168      	cbz	r0, d50e0 <_Z22__fetch_global_Serial1v+0x30>
   d50c4:	4a08      	ldr	r2, [pc, #32]	; (d50e8 <_Z22__fetch_global_Serial1v+0x38>)
   d50c6:	4b09      	ldr	r3, [pc, #36]	; (d50ec <_Z22__fetch_global_Serial1v+0x3c>)
   d50c8:	4809      	ldr	r0, [pc, #36]	; (d50f0 <_Z22__fetch_global_Serial1v+0x40>)
   d50ca:	4621      	mov	r1, r4
   d50cc:	f7ff ffda 	bl	d5084 <_ZN11USARTSerialC1E16HAL_USART_SerialP11Ring_BufferS2_>
   d50d0:	4628      	mov	r0, r5
   d50d2:	f7fe ffe9 	bl	d40a8 <__cxa_guard_release>
   d50d6:	4a07      	ldr	r2, [pc, #28]	; (d50f4 <_Z22__fetch_global_Serial1v+0x44>)
   d50d8:	4907      	ldr	r1, [pc, #28]	; (d50f8 <_Z22__fetch_global_Serial1v+0x48>)
   d50da:	4805      	ldr	r0, [pc, #20]	; (d50f0 <_Z22__fetch_global_Serial1v+0x40>)
   d50dc:	f000 fad8 	bl	d5690 <__aeabi_atexit>
    serial1_tx_buffer = new Ring_Buffer();
  }
  static USARTSerial serial1(HAL_USART_SERIAL1, serial1_rx_buffer, serial1_tx_buffer);
#endif
	return serial1;
}
   d50e0:	4803      	ldr	r0, [pc, #12]	; (d50f0 <_Z22__fetch_global_Serial1v+0x40>)
   d50e2:	bd38      	pop	{r3, r4, r5, pc}
   d50e4:	2003e670 	.word	0x2003e670
   d50e8:	2003e674 	.word	0x2003e674
   d50ec:	2003e5ec 	.word	0x2003e5ec
   d50f0:	2003e5d8 	.word	0x2003e5d8
   d50f4:	2003dd8c 	.word	0x2003dd8c
   d50f8:	000d5001 	.word	0x000d5001

000d50fc <_ZNSt14_Function_baseD1Ev>:
	}
      };

    _Function_base() : _M_manager(nullptr) { }

    ~_Function_base()
   d50fc:	b510      	push	{r4, lr}
    {
      if (_M_manager)
   d50fe:	6883      	ldr	r3, [r0, #8]
	}
      };

    _Function_base() : _M_manager(nullptr) { }

    ~_Function_base()
   d5100:	4604      	mov	r4, r0
    {
      if (_M_manager)
   d5102:	b113      	cbz	r3, d510a <_ZNSt14_Function_baseD1Ev+0xe>
	_M_manager(_M_functor, _M_functor, __destroy_functor);
   d5104:	2203      	movs	r2, #3
   d5106:	4601      	mov	r1, r0
   d5108:	4798      	blx	r3
    }
   d510a:	4620      	mov	r0, r4
   d510c:	bd10      	pop	{r4, pc}

000d510e <_ZN9USBSerial14blockOnOverrunEb>:
  HAL_USB_USART_Flush_Data(_serial);
}

void USBSerial::blockOnOverrun(bool block)
{
  _blocking = block;
   d510e:	7441      	strb	r1, [r0, #17]
   d5110:	4770      	bx	lr

000d5112 <_ZN9USBSerialD1Ev>:
#include "usb_hal.h"
#include "system_task.h"
#include "spark_wiring_startup.h"
#include "concurrent_hal.h"

class USBSerial : public Stream
   d5112:	4770      	bx	lr

000d5114 <_ZN9USBSerial4readEv>:
}


// Read data from buffer
int USBSerial::read()
{
   d5114:	b508      	push	{r3, lr}
	return std::max(-1, (int)HAL_USB_USART_Receive_Data(_serial, false));
   d5116:	2100      	movs	r1, #0
   d5118:	7c00      	ldrb	r0, [r0, #16]
   d511a:	f7ff fc95 	bl	d4a48 <HAL_USB_USART_Receive_Data>
}
   d511e:	ea30 0020 	bics.w	r0, r0, r0, asr #32
   d5122:	bf28      	it	cs
   d5124:	f04f 30ff 	movcs.w	r0, #4294967295
   d5128:	bd08      	pop	{r3, pc}

000d512a <_ZN9USBSerial4peekEv>:
{
  _blocking = block;
}

int USBSerial::peek()
{
   d512a:	b508      	push	{r3, lr}
	return std::max(-1, (int)HAL_USB_USART_Receive_Data(_serial, true));
   d512c:	2101      	movs	r1, #1
   d512e:	7c00      	ldrb	r0, [r0, #16]
   d5130:	f7ff fc8a 	bl	d4a48 <HAL_USB_USART_Receive_Data>
}
   d5134:	ea30 0020 	bics.w	r0, r0, r0, asr #32
   d5138:	bf28      	it	cs
   d513a:	f04f 30ff 	movcs.w	r0, #4294967295
   d513e:	bd08      	pop	{r3, pc}

000d5140 <_ZN9USBSerial17availableForWriteEv>:
{
	return std::max(-1, (int)HAL_USB_USART_Receive_Data(_serial, false));
}

int USBSerial::availableForWrite()
{
   d5140:	b508      	push	{r3, lr}
  return std::max(0, (int)HAL_USB_USART_Available_Data_For_Write(_serial));
   d5142:	7c00      	ldrb	r0, [r0, #16]
   d5144:	f7ff fc78 	bl	d4a38 <HAL_USB_USART_Available_Data_For_Write>
}
   d5148:	ea20 70e0 	bic.w	r0, r0, r0, asr #31
   d514c:	bd08      	pop	{r3, pc}

000d514e <_ZN9USBSerial9availableEv>:

int USBSerial::available()
{
   d514e:	b508      	push	{r3, lr}
	return std::max(0, (int)HAL_USB_USART_Available_Data(_serial));
   d5150:	7c00      	ldrb	r0, [r0, #16]
   d5152:	f7ff fc69 	bl	d4a28 <HAL_USB_USART_Available_Data>
}
   d5156:	ea20 70e0 	bic.w	r0, r0, r0, asr #31
   d515a:	bd08      	pop	{r3, pc}

000d515c <_ZN9USBSerial5flushEv>:
  return 0;
}

void USBSerial::flush()
{
  HAL_USB_USART_Flush_Data(_serial);
   d515c:	7c00      	ldrb	r0, [r0, #16]
   d515e:	f7ff bc83 	b.w	d4a68 <HAL_USB_USART_Flush_Data>

000d5162 <_ZN9USBSerialD0Ev>:
   d5162:	b510      	push	{r4, lr}
   d5164:	2114      	movs	r1, #20
   d5166:	4604      	mov	r4, r0
   d5168:	f000 fa97 	bl	d569a <_ZdlPvj>
   d516c:	4620      	mov	r0, r4
   d516e:	bd10      	pop	{r4, pc}

000d5170 <_ZN9USBSerial5writeEh>:
{
	return std::max(0, (int)HAL_USB_USART_Available_Data(_serial));
}

size_t USBSerial::write(uint8_t byte)
{
   d5170:	b538      	push	{r3, r4, r5, lr}
   d5172:	4604      	mov	r4, r0
  if (HAL_USB_USART_Available_Data_For_Write(_serial) > 0 || _blocking) {
   d5174:	7c00      	ldrb	r0, [r0, #16]
{
	return std::max(0, (int)HAL_USB_USART_Available_Data(_serial));
}

size_t USBSerial::write(uint8_t byte)
{
   d5176:	460d      	mov	r5, r1
  if (HAL_USB_USART_Available_Data_For_Write(_serial) > 0 || _blocking) {
   d5178:	f7ff fc5e 	bl	d4a38 <HAL_USB_USART_Available_Data_For_Write>
   d517c:	2800      	cmp	r0, #0
   d517e:	dc01      	bgt.n	d5184 <_ZN9USBSerial5writeEh+0x14>
   d5180:	7c60      	ldrb	r0, [r4, #17]
   d5182:	b128      	cbz	r0, d5190 <_ZN9USBSerial5writeEh+0x20>
    return std::max(0, (int)HAL_USB_USART_Send_Data(_serial, byte));
   d5184:	4629      	mov	r1, r5
   d5186:	7c20      	ldrb	r0, [r4, #16]
   d5188:	f7ff fc66 	bl	d4a58 <HAL_USB_USART_Send_Data>
   d518c:	ea20 70e0 	bic.w	r0, r0, r0, asr #31
  }
  return 0;
}
   d5190:	bd38      	pop	{r3, r4, r5, pc}
	...

000d5194 <_ZN9USBSerialC1E20HAL_USB_USART_SerialRK20HAL_USB_USART_Config>:

  HAL_USB_USART_Config conf = acquireSerialBuffer();
  HAL_USB_USART_Init(_serial, &conf);
}

USBSerial::USBSerial(HAL_USB_USART_Serial serial, const HAL_USB_USART_Config& conf)
   d5194:	b510      	push	{r4, lr}
   d5196:	4604      	mov	r4, r0
   d5198:	2300      	movs	r3, #0
   d519a:	6063      	str	r3, [r4, #4]
   d519c:	f44f 737a 	mov.w	r3, #1000	; 0x3e8
   d51a0:	60a3      	str	r3, [r4, #8]
   d51a2:	4b05      	ldr	r3, [pc, #20]	; (d51b8 <_ZN9USBSerialC1E20HAL_USB_USART_SerialRK20HAL_USB_USART_Config+0x24>)
   d51a4:	6023      	str	r3, [r4, #0]
{
  _serial = serial;
  _blocking = true;
   d51a6:	2301      	movs	r3, #1

  HAL_USB_USART_Config conf = acquireSerialBuffer();
  HAL_USB_USART_Init(_serial, &conf);
}

USBSerial::USBSerial(HAL_USB_USART_Serial serial, const HAL_USB_USART_Config& conf)
   d51a8:	4608      	mov	r0, r1
{
  _serial = serial;
   d51aa:	7421      	strb	r1, [r4, #16]
  _blocking = true;
   d51ac:	7463      	strb	r3, [r4, #17]

  HAL_USB_USART_Init(_serial, &conf);
   d51ae:	4611      	mov	r1, r2
   d51b0:	f7ff fc2a 	bl	d4a08 <HAL_USB_USART_Init>
}
   d51b4:	4620      	mov	r0, r4
   d51b6:	bd10      	pop	{r4, pc}
   d51b8:	000d5b1c 	.word	0x000d5b1c

000d51bc <_ZN9USBSerial5beginEl>:
// Public methods
//

void USBSerial::begin(long speed)
{
    HAL_USB_USART_Begin(_serial, speed, NULL);
   d51bc:	2200      	movs	r2, #0
   d51be:	7c00      	ldrb	r0, [r0, #16]
   d51c0:	f7ff bc2a 	b.w	d4a18 <HAL_USB_USART_Begin>

000d51c4 <_Z19acquireSerialBufferv>:

// Preinstantiate Objects //////////////////////////////////////////////////////
#ifdef SPARK_USB_SERIAL

HAL_USB_USART_Config __attribute__((weak)) acquireSerialBuffer()
{
   d51c4:	b510      	push	{r4, lr}
  HAL_USB_USART_Config conf = {0};
   d51c6:	2214      	movs	r2, #20

// Preinstantiate Objects //////////////////////////////////////////////////////
#ifdef SPARK_USB_SERIAL

HAL_USB_USART_Config __attribute__((weak)) acquireSerialBuffer()
{
   d51c8:	4604      	mov	r4, r0
  HAL_USB_USART_Config conf = {0};
   d51ca:	2100      	movs	r1, #0
   d51cc:	f000 fbc9 	bl	d5962 <memset>
  conf.rx_buffer_size = USB_RX_BUFFER_SIZE;
  conf.tx_buffer_size = USB_TX_BUFFER_SIZE;
#endif

  return conf;
}
   d51d0:	4620      	mov	r0, r4
   d51d2:	bd10      	pop	{r4, pc}

000d51d4 <_Z16_fetch_usbserialv>:

USBSerial& _fetch_usbserial()
{
   d51d4:	b530      	push	{r4, r5, lr}
  HAL_USB_USART_Config conf = acquireSerialBuffer();
	static USBSerial _usbserial(HAL_USB_USART_SERIAL, conf);
   d51d6:	4d0e      	ldr	r5, [pc, #56]	; (d5210 <_Z16_fetch_usbserialv+0x3c>)

  return conf;
}

USBSerial& _fetch_usbserial()
{
   d51d8:	b087      	sub	sp, #28
  HAL_USB_USART_Config conf = acquireSerialBuffer();
   d51da:	a801      	add	r0, sp, #4
   d51dc:	f7ff fff2 	bl	d51c4 <_Z19acquireSerialBufferv>
	static USBSerial _usbserial(HAL_USB_USART_SERIAL, conf);
   d51e0:	6829      	ldr	r1, [r5, #0]
   d51e2:	f011 0401 	ands.w	r4, r1, #1
   d51e6:	d110      	bne.n	d520a <_Z16_fetch_usbserialv+0x36>
   d51e8:	4628      	mov	r0, r5
   d51ea:	f7fe ff58 	bl	d409e <__cxa_guard_acquire>
   d51ee:	b160      	cbz	r0, d520a <_Z16_fetch_usbserialv+0x36>
   d51f0:	aa01      	add	r2, sp, #4
   d51f2:	4621      	mov	r1, r4
   d51f4:	4807      	ldr	r0, [pc, #28]	; (d5214 <_Z16_fetch_usbserialv+0x40>)
   d51f6:	f7ff ffcd 	bl	d5194 <_ZN9USBSerialC1E20HAL_USB_USART_SerialRK20HAL_USB_USART_Config>
   d51fa:	4628      	mov	r0, r5
   d51fc:	f7fe ff54 	bl	d40a8 <__cxa_guard_release>
   d5200:	4a05      	ldr	r2, [pc, #20]	; (d5218 <_Z16_fetch_usbserialv+0x44>)
   d5202:	4906      	ldr	r1, [pc, #24]	; (d521c <_Z16_fetch_usbserialv+0x48>)
   d5204:	4803      	ldr	r0, [pc, #12]	; (d5214 <_Z16_fetch_usbserialv+0x40>)
   d5206:	f000 fa43 	bl	d5690 <__aeabi_atexit>
	return _usbserial;
}
   d520a:	4802      	ldr	r0, [pc, #8]	; (d5214 <_Z16_fetch_usbserialv+0x40>)
   d520c:	b007      	add	sp, #28
   d520e:	bd30      	pop	{r4, r5, pc}
   d5210:	2003e6f8 	.word	0x2003e6f8
   d5214:	2003e6fc 	.word	0x2003e6fc
   d5218:	2003dd8c 	.word	0x2003dd8c
   d521c:	000d5113 	.word	0x000d5113

000d5220 <_ZN9IPAddressD1Ev>:
    IPAddress(uint8_t first_octet, uint8_t second_octet, uint8_t third_octet, uint8_t fourth_octet);
    IPAddress(uint32_t address);
    IPAddress(const uint8_t* address);
    IPAddress(const HAL_IPAddress& address);

    virtual ~IPAddress() {}
   d5220:	4770      	bx	lr

000d5222 <_ZN9IPAddressD0Ev>:
   d5222:	b510      	push	{r4, lr}
   d5224:	2118      	movs	r1, #24
   d5226:	4604      	mov	r4, r0
   d5228:	f000 fa37 	bl	d569a <_ZdlPvj>
   d522c:	4620      	mov	r0, r4
   d522e:	bd10      	pop	{r4, pc}

000d5230 <_ZNK9IPAddress7printToER5Print>:
#endif // Wiring_IPv6
	return address.ipv4==that.address.ipv4;
}

size_t IPAddress::printTo(Print& p) const
{
   d5230:	b5f0      	push	{r4, r5, r6, r7, lr}
#if Wiring_IPv6
#if HAL_USE_INET_HAL_POSIX
	if (address.v==6) {
   d5232:	7d03      	ldrb	r3, [r0, #20]
   d5234:	2b06      	cmp	r3, #6
#endif // Wiring_IPv6
	return address.ipv4==that.address.ipv4;
}

size_t IPAddress::printTo(Print& p) const
{
   d5236:	b08d      	sub	sp, #52	; 0x34
   d5238:	460e      	mov	r6, r1
   d523a:	f100 0704 	add.w	r7, r0, #4
   d523e:	f04f 0400 	mov.w	r4, #0
#if Wiring_IPv6
#if HAL_USE_INET_HAL_POSIX
	if (address.v==6) {
   d5242:	d002      	beq.n	d524a <_ZNK9IPAddress7printToER5Print+0x1a>
   d5244:	f100 0508 	add.w	r5, r0, #8
   d5248:	e018      	b.n	d527c <_ZNK9IPAddress7printToER5Print+0x4c>
		char buf[INET6_ADDRSTRLEN+1];
		buf[0] = 0;
   d524a:	ad0c      	add	r5, sp, #48	; 0x30
		inet_inet_ntop(AF_INET6, address.ipv6, buf, sizeof(buf));
   d524c:	4639      	mov	r1, r7
{
#if Wiring_IPv6
#if HAL_USE_INET_HAL_POSIX
	if (address.v==6) {
		char buf[INET6_ADDRSTRLEN+1];
		buf[0] = 0;
   d524e:	f805 4d30 	strb.w	r4, [r5, #-48]!
		inet_inet_ntop(AF_INET6, address.ipv6, buf, sizeof(buf));
   d5252:	232f      	movs	r3, #47	; 0x2f
   d5254:	462a      	mov	r2, r5
   d5256:	200a      	movs	r0, #10
   d5258:	f7ff fc46 	bl	d4ae8 <inet_inet_ntop>
    void clearWriteError() { setWriteError(0); }

    virtual size_t write(uint8_t) = 0;
    size_t write(const char *str) {
      if (str == NULL) return 0;
      return write((const uint8_t *)str, strlen(str));
   d525c:	4628      	mov	r0, r5
   d525e:	f000 fbb1 	bl	d59c4 <strlen>
   d5262:	6833      	ldr	r3, [r6, #0]
   d5264:	4602      	mov	r2, r0
   d5266:	68db      	ldr	r3, [r3, #12]
   d5268:	4629      	mov	r1, r5
   d526a:	4630      	mov	r0, r6
   d526c:	4798      	blx	r3
   d526e:	e00f      	b.n	d5290 <_ZNK9IPAddress7printToER5Print+0x60>
#endif // HAL_USE_INET_HAL_POSIX
#endif // Wiring_IPv6
    size_t n = 0;
    for (int i = 0; i < 4; i++)
    {
        if (n)
   d5270:	b124      	cbz	r4, d527c <_ZNK9IPAddress7printToER5Print+0x4c>
            n += p.print('.');
   d5272:	212e      	movs	r1, #46	; 0x2e
   d5274:	4630      	mov	r0, r6
   d5276:	f000 f91d 	bl	d54b4 <_ZN5Print5printEc>
   d527a:	4404      	add	r4, r0
            t = print('-');
            val = -n;
        } else {
            val = n;
        }
        return printNumber(val, base) + t;
   d527c:	f815 1d01 	ldrb.w	r1, [r5, #-1]!
   d5280:	220a      	movs	r2, #10
   d5282:	4630      	mov	r0, r6
   d5284:	f000 f925 	bl	d54d2 <_ZN5Print11printNumberEmh>
#else
#pragma message "HAL_USE_INET_HAL_POSIX is required for IPv6 support in IPAddress::printTo()"
#endif // HAL_USE_INET_HAL_POSIX
#endif // Wiring_IPv6
    size_t n = 0;
    for (int i = 0; i < 4; i++)
   d5288:	42bd      	cmp	r5, r7
    {
        if (n)
            n += p.print('.');
        n += p.print((*this)[i], DEC);
   d528a:	4404      	add	r4, r0
#else
#pragma message "HAL_USE_INET_HAL_POSIX is required for IPv6 support in IPAddress::printTo()"
#endif // HAL_USE_INET_HAL_POSIX
#endif // Wiring_IPv6
    size_t n = 0;
    for (int i = 0; i < 4; i++)
   d528c:	d1f0      	bne.n	d5270 <_ZNK9IPAddress7printToER5Print+0x40>
    {
        if (n)
            n += p.print('.');
        n += p.print((*this)[i], DEC);
   d528e:	4620      	mov	r0, r4
    }
    return n;
}
   d5290:	b00d      	add	sp, #52	; 0x34
   d5292:	bdf0      	pop	{r4, r5, r6, r7, pc}

000d5294 <_ZN9IPAddressC1Ev>:

#if HAL_USE_INET_HAL_POSIX
#include <arpa/inet.h>
#endif // HAL_USE_INET_HAL_POSIX

IPAddress::IPAddress()
   d5294:	b510      	push	{r4, lr}
   d5296:	4b05      	ldr	r3, [pc, #20]	; (d52ac <_ZN9IPAddressC1Ev+0x18>)
   d5298:	4604      	mov	r4, r0
        return address;
    }

    virtual size_t printTo(Print& p) const;

    void clear() { memset(&address, 0, sizeof (address)); }
   d529a:	2211      	movs	r2, #17
   d529c:	f840 3b04 	str.w	r3, [r0], #4
   d52a0:	2100      	movs	r1, #0
   d52a2:	f000 fb5e 	bl	d5962 <memset>
{
    clear();
}
   d52a6:	4620      	mov	r0, r4
   d52a8:	bd10      	pop	{r4, pc}
   d52aa:	bf00      	nop
   d52ac:	000d5b4c 	.word	0x000d5b4c

000d52b0 <_ZN9IPAddressC1ERK16_HAL_IPAddress_t>:

IPAddress::IPAddress(const HAL_IPAddress& address)
   d52b0:	4603      	mov	r3, r0
   d52b2:	4a07      	ldr	r2, [pc, #28]	; (d52d0 <_ZN9IPAddressC1ERK16_HAL_IPAddress_t+0x20>)
   d52b4:	b510      	push	{r4, lr}
   d52b6:	f843 2b04 	str.w	r2, [r3], #4
{
    memcpy(&this->address, &address, sizeof(address));
   d52ba:	f101 0210 	add.w	r2, r1, #16
   d52be:	f851 4b04 	ldr.w	r4, [r1], #4
   d52c2:	f843 4b04 	str.w	r4, [r3], #4
   d52c6:	4291      	cmp	r1, r2
   d52c8:	d1f9      	bne.n	d52be <_ZN9IPAddressC1ERK16_HAL_IPAddress_t+0xe>
   d52ca:	780a      	ldrb	r2, [r1, #0]
   d52cc:	701a      	strb	r2, [r3, #0]
}
   d52ce:	bd10      	pop	{r4, pc}
   d52d0:	000d5b4c 	.word	0x000d5b4c

000d52d4 <_ZN9IPAddress8set_ipv4Ehhhh>:
    return address.ipv4!=0;
#endif
}

void IPAddress::set_ipv4(uint8_t b0, uint8_t b1, uint8_t b2, uint8_t b3)
{
   d52d4:	b510      	push	{r4, lr}
    address.ipv4 = b0<<24 | b1 << 16 | b2 << 8 | b3;
   d52d6:	f89d 4008 	ldrb.w	r4, [sp, #8]
   d52da:	ea44 2303 	orr.w	r3, r4, r3, lsl #8
   d52de:	ea43 4202 	orr.w	r2, r3, r2, lsl #16
   d52e2:	ea42 6101 	orr.w	r1, r2, r1, lsl #24
        return &address;
    }

    inline void setVersion(uint8_t version) {
#if HAL_IPv6
        address.v = version;
   d52e6:	2304      	movs	r3, #4
   d52e8:	6041      	str	r1, [r0, #4]
   d52ea:	7503      	strb	r3, [r0, #20]
   d52ec:	bd10      	pop	{r4, pc}

000d52ee <_ZN9IPAddressaSEPKh>:
    setVersion(4);
}

IPAddress& IPAddress::operator=(const uint8_t* address)
{
   d52ee:	b537      	push	{r0, r1, r2, r4, r5, lr}
    set_ipv4(address[0], address[1], address[2], address[3]);
   d52f0:	780d      	ldrb	r5, [r1, #0]
   d52f2:	788b      	ldrb	r3, [r1, #2]
   d52f4:	784a      	ldrb	r2, [r1, #1]
   d52f6:	78c9      	ldrb	r1, [r1, #3]
   d52f8:	9100      	str	r1, [sp, #0]
   d52fa:	4629      	mov	r1, r5
   d52fc:	f7ff ffea 	bl	d52d4 <_ZN9IPAddress8set_ipv4Ehhhh>
    return *this;
}
   d5300:	b003      	add	sp, #12
   d5302:	bd30      	pop	{r4, r5, pc}

000d5304 <serialEventRun>:

/**
 * Provides background processing of serial data.
 */
void serialEventRun()
{
   d5304:	b508      	push	{r3, lr}
    if (serialEvent && Serial.available()>0)
   d5306:	4b0c      	ldr	r3, [pc, #48]	; (d5338 <serialEventRun+0x34>)
   d5308:	b133      	cbz	r3, d5318 <serialEventRun+0x14>
   d530a:	f7ff ff63 	bl	d51d4 <_Z16_fetch_usbserialv>
   d530e:	6803      	ldr	r3, [r0, #0]
   d5310:	691b      	ldr	r3, [r3, #16]
   d5312:	4798      	blx	r3
   d5314:	2800      	cmp	r0, #0
   d5316:	dc09      	bgt.n	d532c <serialEventRun+0x28>
        serialEvent();

    if (serialEvent1 && Serial1.available()>0)
   d5318:	4b08      	ldr	r3, [pc, #32]	; (d533c <serialEventRun+0x38>)
   d531a:	b163      	cbz	r3, d5336 <serialEventRun+0x32>
   d531c:	f7ff fec8 	bl	d50b0 <_Z22__fetch_global_Serial1v>
   d5320:	6803      	ldr	r3, [r0, #0]
   d5322:	691b      	ldr	r3, [r3, #16]
   d5324:	4798      	blx	r3
   d5326:	2800      	cmp	r0, #0
   d5328:	dc03      	bgt.n	d5332 <serialEventRun+0x2e>
   d532a:	bd08      	pop	{r3, pc}
 * Provides background processing of serial data.
 */
void serialEventRun()
{
    if (serialEvent && Serial.available()>0)
        serialEvent();
   d532c:	f3af 8000 	nop.w
   d5330:	e7f2      	b.n	d5318 <serialEventRun+0x14>

    if (serialEvent1 && Serial1.available()>0)
        serialEvent1();
   d5332:	f3af 8000 	nop.w
   d5336:	bd08      	pop	{r3, pc}
	...

000d5340 <_post_loop>:
#if Wiring_Serial5
void serialEvent5() __attribute__((weak));
#endif

void _post_loop()
{
   d5340:	b508      	push	{r3, lr}
	serialEventRun();
   d5342:	f7ff ffdf 	bl	d5304 <serialEventRun>
		return !timeout_fn;
	}

	static inline system_tick_t current_time()
	{
		return HAL_Timer_Get_Milli_Seconds();
   d5346:	f7ff fc07 	bl	d4b58 <HAL_Timer_Get_Milli_Seconds>
	/**
	 * Lifesign that the application is still working normally.
	 */
	static void checkin()
	{
		last_checkin = current_time();
   d534a:	4b01      	ldr	r3, [pc, #4]	; (d5350 <_post_loop+0x10>)
   d534c:	6018      	str	r0, [r3, #0]
   d534e:	bd08      	pop	{r3, pc}
   d5350:	2003e748 	.word	0x2003e748

000d5354 <_Z33system_initialize_user_backup_ramv>:
 * the dynamically linked application module.
 */
void system_initialize_user_backup_ram()
{
    size_t len = &link_global_retained_end-&link_global_retained_start;
    memcpy(&link_global_retained_start, &link_global_retained_initial_values, len);
   d5354:	4802      	ldr	r0, [pc, #8]	; (d5360 <_Z33system_initialize_user_backup_ramv+0xc>)
   d5356:	4a03      	ldr	r2, [pc, #12]	; (d5364 <_Z33system_initialize_user_backup_ramv+0x10>)
   d5358:	4903      	ldr	r1, [pc, #12]	; (d5368 <_Z33system_initialize_user_backup_ramv+0x14>)
   d535a:	1a12      	subs	r2, r2, r0
   d535c:	f000 baf6 	b.w	d594c <memcpy>
   d5360:	2003f400 	.word	0x2003f400
   d5364:	2003f404 	.word	0x2003f404
   d5368:	000d5d40 	.word	0x000d5d40

000d536c <_Z27ctrl_request_custom_handlerP12ctrl_request>:
bool __backup_ram_was_valid() { return false; }

#endif

// Default handler for CTRL_REQUEST_APP_CUSTOM requests
void __attribute((weak)) ctrl_request_custom_handler(ctrl_request* req) {
   d536c:	b507      	push	{r0, r1, r2, lr}
    system_ctrl_set_result(req, SYSTEM_ERROR_NOT_SUPPORTED, nullptr, nullptr, nullptr);
   d536e:	2300      	movs	r3, #0
   d5370:	9300      	str	r3, [sp, #0]
   d5372:	461a      	mov	r2, r3
   d5374:	f06f 0177 	mvn.w	r1, #119	; 0x77
   d5378:	f7ff fc80 	bl	d4c7c <system_ctrl_set_result>
}
   d537c:	b003      	add	sp, #12
   d537e:	f85d fb04 	ldr.w	pc, [sp], #4
	...

000d5384 <_ZL20ctrl_request_handlerP12ctrl_request>:
// Callback invoked to process a logging configuration request
void(*log_process_ctrl_request_callback)(ctrl_request* req) = nullptr;
#endif

// Application handler for control requests
static void ctrl_request_handler(ctrl_request* req) {
   d5384:	b507      	push	{r0, r1, r2, lr}
    switch (req->type) {
   d5386:	8843      	ldrh	r3, [r0, #2]
   d5388:	2b0a      	cmp	r3, #10
   d538a:	d008      	beq.n	d539e <_ZL20ctrl_request_handlerP12ctrl_request+0x1a>
   d538c:	2b50      	cmp	r3, #80	; 0x50
   d538e:	d109      	bne.n	d53a4 <_ZL20ctrl_request_handlerP12ctrl_request+0x20>
#if Wiring_LogConfig
    case CTRL_REQUEST_LOG_CONFIG: {
        if (log_process_ctrl_request_callback) {
   d5390:	4b09      	ldr	r3, [pc, #36]	; (d53b8 <_ZL20ctrl_request_handlerP12ctrl_request+0x34>)
   d5392:	681b      	ldr	r3, [r3, #0]
   d5394:	b13b      	cbz	r3, d53a6 <_ZL20ctrl_request_handlerP12ctrl_request+0x22>
    }
    default:
        system_ctrl_set_result(req, SYSTEM_ERROR_NOT_SUPPORTED, nullptr, nullptr, nullptr);
        break;
    }
}
   d5396:	b003      	add	sp, #12
   d5398:	f85d eb04 	ldr.w	lr, [sp], #4
static void ctrl_request_handler(ctrl_request* req) {
    switch (req->type) {
#if Wiring_LogConfig
    case CTRL_REQUEST_LOG_CONFIG: {
        if (log_process_ctrl_request_callback) {
            log_process_ctrl_request_callback(req);
   d539c:	4718      	bx	r3
        }
        break;
    }
#endif
    case CTRL_REQUEST_APP_CUSTOM: {
        ctrl_request_custom_handler(req);
   d539e:	f7ff ffe5 	bl	d536c <_Z27ctrl_request_custom_handlerP12ctrl_request>
        break;
   d53a2:	e006      	b.n	d53b2 <_ZL20ctrl_request_handlerP12ctrl_request+0x2e>
    }
    default:
        system_ctrl_set_result(req, SYSTEM_ERROR_NOT_SUPPORTED, nullptr, nullptr, nullptr);
   d53a4:	2300      	movs	r3, #0
   d53a6:	9300      	str	r3, [sp, #0]
   d53a8:	461a      	mov	r2, r3
   d53aa:	f06f 0177 	mvn.w	r1, #119	; 0x77
   d53ae:	f7ff fc65 	bl	d4c7c <system_ctrl_set_result>
        break;
    }
}
   d53b2:	b003      	add	sp, #12
   d53b4:	f85d fb04 	ldr.w	pc, [sp], #4
   d53b8:	2003e710 	.word	0x2003e710

000d53bc <module_user_init_hook>:

void module_user_init_hook()
{
   d53bc:	b538      	push	{r3, r4, r5, lr}
#if HAL_PLATFORM_BACKUP_RAM
    backup_ram_was_valid_ =  __backup_sram_signature==signature;
   d53be:	4c10      	ldr	r4, [pc, #64]	; (d5400 <module_user_init_hook+0x44>)
   d53c0:	4d10      	ldr	r5, [pc, #64]	; (d5404 <module_user_init_hook+0x48>)
   d53c2:	6823      	ldr	r3, [r4, #0]
   d53c4:	42ab      	cmp	r3, r5
   d53c6:	4b10      	ldr	r3, [pc, #64]	; (d5408 <module_user_init_hook+0x4c>)
   d53c8:	bf0c      	ite	eq
   d53ca:	2201      	moveq	r2, #1
   d53cc:	2200      	movne	r2, #0
   d53ce:	701a      	strb	r2, [r3, #0]
    if (!backup_ram_was_valid_) {
   d53d0:	d002      	beq.n	d53d8 <module_user_init_hook+0x1c>
        system_initialize_user_backup_ram();
   d53d2:	f7ff ffbf 	bl	d5354 <_Z33system_initialize_user_backup_ramv>
        __backup_sram_signature = signature;
   d53d6:	6025      	str	r5, [r4, #0]
    }
#endif

#if HAL_PLATFORM_RNG
    // Initialize the default stdlib PRNG using hardware RNG as a seed
    const uint32_t seed = HAL_RNG_GetRandomNumber();
   d53d8:	f7ff fbb6 	bl	d4b48 <HAL_RNG_GetRandomNumber>
   d53dc:	4604      	mov	r4, r0
    srand(seed);
   d53de:	f000 fac9 	bl	d5974 <srand>

    // If the user defines random_seed_from_cloud, call it with a seed value
    // generated by a hardware RNG as well.
    if (random_seed_from_cloud) {
   d53e2:	4b0a      	ldr	r3, [pc, #40]	; (d540c <module_user_init_hook+0x50>)
   d53e4:	b113      	cbz	r3, d53ec <module_user_init_hook+0x30>
        random_seed_from_cloud(seed);
   d53e6:	4620      	mov	r0, r4
   d53e8:	f3af 8000 	nop.w
    }
#endif
    // Register the random_seed_from_cloud handler
    spark_set_random_seed_from_cloud_handler(&random_seed_from_cloud, nullptr);
   d53ec:	2100      	movs	r1, #0
   d53ee:	4807      	ldr	r0, [pc, #28]	; (d540c <module_user_init_hook+0x50>)
   d53f0:	f7ff fbd2 	bl	d4b98 <spark_set_random_seed_from_cloud_handler>

    // Register application handler for the control requests
    system_ctrl_set_app_request_handler(ctrl_request_handler, nullptr);
   d53f4:	2100      	movs	r1, #0
   d53f6:	4806      	ldr	r0, [pc, #24]	; (d5410 <module_user_init_hook+0x54>)
}
   d53f8:	e8bd 4038 	ldmia.w	sp!, {r3, r4, r5, lr}
#endif
    // Register the random_seed_from_cloud handler
    spark_set_random_seed_from_cloud_handler(&random_seed_from_cloud, nullptr);

    // Register application handler for the control requests
    system_ctrl_set_app_request_handler(ctrl_request_handler, nullptr);
   d53fc:	f7ff bc34 	b.w	d4c68 <system_ctrl_set_app_request_handler>
   d5400:	2003f400 	.word	0x2003f400
   d5404:	9a271c1e 	.word	0x9a271c1e
   d5408:	2003e714 	.word	0x2003e714
   d540c:	00000000 	.word	0x00000000
   d5410:	000d5385 	.word	0x000d5385

000d5414 <_ZN8RGBClassD1Ev>:
#include "rgbled.h"

typedef void (raw_rgb_change_handler_t)(uint8_t, uint8_t, uint8_t);
typedef std::function<raw_rgb_change_handler_t> wiring_rgb_change_handler_t;

class RGBClass {
   d5414:	b510      	push	{r4, lr}
   d5416:	4604      	mov	r4, r0
   *  @ingroup functors
   *
   *  Polymorphic function wrapper.
   */
  template<typename _Res, typename... _ArgTypes>
    class function<_Res(_ArgTypes...)>
   d5418:	f7ff fe70 	bl	d50fc <_ZNSt14_Function_baseD1Ev>
   d541c:	4620      	mov	r0, r4
   d541e:	bd10      	pop	{r4, pc}

000d5420 <_GLOBAL__sub_I_RGB>:
	{
	  _Base::_M_init_functor(__functor, std::__addressof(__f.get()));
	}
      };

    _Function_base() : _M_manager(nullptr) { }
   d5420:	4803      	ldr	r0, [pc, #12]	; (d5430 <_GLOBAL__sub_I_RGB+0x10>)
#include "spark_wiring_rgb.h"
#include "spark_wiring_interrupts.h"

#include "core_hal.h"

RGBClass RGB;
   d5422:	4a04      	ldr	r2, [pc, #16]	; (d5434 <_GLOBAL__sub_I_RGB+0x14>)
   d5424:	4904      	ldr	r1, [pc, #16]	; (d5438 <_GLOBAL__sub_I_RGB+0x18>)
   d5426:	2300      	movs	r3, #0
   d5428:	6083      	str	r3, [r0, #8]
   d542a:	f000 b931 	b.w	d5690 <__aeabi_atexit>
   d542e:	bf00      	nop
   d5430:	2003e718 	.word	0x2003e718
   d5434:	2003dd8c 	.word	0x2003dd8c
   d5438:	000d5415 	.word	0x000d5415

000d543c <delay>:
    return (value - fromStart) * (toEnd - toStart) / (fromEnd - fromStart) + toStart;
}

void delay(unsigned long ms)
{
    system_delay_ms(ms, false);
   d543c:	2100      	movs	r1, #0
   d543e:	f7ff bc0b 	b.w	d4c58 <system_delay_ms>
	...

000d5444 <_GLOBAL__sub_I_TIME_FORMAT_DEFAULT>:
            calendar_time_cache = Convert_UnixTime_To_CalendarTime(unix_time);
            unix_time_cache = unix_time;
    }
}

const char* TimeClass::format_spec = TIME_FORMAT_DEFAULT;
   d5444:	4b02      	ldr	r3, [pc, #8]	; (d5450 <_GLOBAL__sub_I_TIME_FORMAT_DEFAULT+0xc>)
   d5446:	681a      	ldr	r2, [r3, #0]
   d5448:	4b02      	ldr	r3, [pc, #8]	; (d5454 <_GLOBAL__sub_I_TIME_FORMAT_DEFAULT+0x10>)
   d544a:	601a      	str	r2, [r3, #0]
   d544c:	4770      	bx	lr
   d544e:	bf00      	nop
   d5450:	2003dd24 	.word	0x2003dd24
   d5454:	2003e728 	.word	0x2003e728

000d5458 <_GLOBAL__sub_I__ZN5spark3LogE>:
    // This handler doesn't support direct logging
}

// spark::Logger
inline spark::Logger::Logger(const char *name) :
        name_(name) {
   d5458:	4b01      	ldr	r3, [pc, #4]	; (d5460 <_GLOBAL__sub_I__ZN5spark3LogE+0x8>)
   d545a:	4a02      	ldr	r2, [pc, #8]	; (d5464 <_GLOBAL__sub_I__ZN5spark3LogE+0xc>)
   d545c:	601a      	str	r2, [r3, #0]
   d545e:	4770      	bx	lr
   d5460:	2003e72c 	.word	0x2003e72c
   d5464:	000d5bf4 	.word	0x000d5bf4

000d5468 <_ZN5Print5writeEPKhj>:

// Public Methods //////////////////////////////////////////////////////////////

/* default implementation: may be overridden */
size_t Print::write(const uint8_t *buffer, size_t size)
{
   d5468:	b5f8      	push	{r3, r4, r5, r6, r7, lr}
   d546a:	4606      	mov	r6, r0
   d546c:	460d      	mov	r5, r1
   d546e:	188f      	adds	r7, r1, r2
  size_t n = 0;
   d5470:	2400      	movs	r4, #0
  while (size--) {
   d5472:	42bd      	cmp	r5, r7
   d5474:	d00c      	beq.n	d5490 <_ZN5Print5writeEPKhj+0x28>
     int chunk = write(*buffer++);
   d5476:	6833      	ldr	r3, [r6, #0]
   d5478:	f815 1b01 	ldrb.w	r1, [r5], #1
   d547c:	689b      	ldr	r3, [r3, #8]
   d547e:	4630      	mov	r0, r6
   d5480:	4798      	blx	r3
     if (chunk>=0)
   d5482:	2800      	cmp	r0, #0
   d5484:	db01      	blt.n	d548a <_ZN5Print5writeEPKhj+0x22>
         n += chunk;
   d5486:	4404      	add	r4, r0

/* default implementation: may be overridden */
size_t Print::write(const uint8_t *buffer, size_t size)
{
  size_t n = 0;
  while (size--) {
   d5488:	e7f3      	b.n	d5472 <_ZN5Print5writeEPKhj+0xa>
     int chunk = write(*buffer++);
   d548a:	2c00      	cmp	r4, #0
   d548c:	bf08      	it	eq
   d548e:	4604      	moveq	r4, r0
             n = chunk;
         break;
     }
  }
  return n;
}
   d5490:	4620      	mov	r0, r4
   d5492:	bdf8      	pop	{r3, r4, r5, r6, r7, pc}

000d5494 <_ZN5Print5writeEPKc>:

    int getWriteError() { return write_error; }
    void clearWriteError() { setWriteError(0); }

    virtual size_t write(uint8_t) = 0;
    size_t write(const char *str) {
   d5494:	b570      	push	{r4, r5, r6, lr}
   d5496:	4605      	mov	r5, r0
      if (str == NULL) return 0;
   d5498:	460c      	mov	r4, r1
      return write((const uint8_t *)str, strlen(str));
    }
   d549a:	4608      	mov	r0, r1
    int getWriteError() { return write_error; }
    void clearWriteError() { setWriteError(0); }

    virtual size_t write(uint8_t) = 0;
    size_t write(const char *str) {
      if (str == NULL) return 0;
   d549c:	b149      	cbz	r1, d54b2 <_ZN5Print5writeEPKc+0x1e>
      return write((const uint8_t *)str, strlen(str));
   d549e:	f000 fa91 	bl	d59c4 <strlen>
   d54a2:	682b      	ldr	r3, [r5, #0]
   d54a4:	4602      	mov	r2, r0
   d54a6:	4621      	mov	r1, r4
   d54a8:	4628      	mov	r0, r5
   d54aa:	68db      	ldr	r3, [r3, #12]
    }
   d54ac:	e8bd 4070 	ldmia.w	sp!, {r4, r5, r6, lr}
    void clearWriteError() { setWriteError(0); }

    virtual size_t write(uint8_t) = 0;
    size_t write(const char *str) {
      if (str == NULL) return 0;
      return write((const uint8_t *)str, strlen(str));
   d54b0:	4718      	bx	r3
    }
   d54b2:	bd70      	pop	{r4, r5, r6, pc}

000d54b4 <_ZN5Print5printEc>:
  return write(str);
}

size_t Print::print(char c)
{
  return write(c);
   d54b4:	6803      	ldr	r3, [r0, #0]
   d54b6:	689b      	ldr	r3, [r3, #8]
   d54b8:	4718      	bx	r3

000d54ba <_ZN5Print7printlnEv>:
{
  return print(reinterpret_cast<const char*>(str));
}

size_t Print::println(void)
{
   d54ba:	b538      	push	{r3, r4, r5, lr}
  size_t n = print('\r');
   d54bc:	210d      	movs	r1, #13
{
  return print(reinterpret_cast<const char*>(str));
}

size_t Print::println(void)
{
   d54be:	4605      	mov	r5, r0
  size_t n = print('\r');
   d54c0:	f7ff fff8 	bl	d54b4 <_ZN5Print5printEc>
  n += print('\n');
   d54c4:	210a      	movs	r1, #10
  return print(reinterpret_cast<const char*>(str));
}

size_t Print::println(void)
{
  size_t n = print('\r');
   d54c6:	4604      	mov	r4, r0
  n += print('\n');
   d54c8:	4628      	mov	r0, r5
   d54ca:	f7ff fff3 	bl	d54b4 <_ZN5Print5printEc>
  return n;
}
   d54ce:	4420      	add	r0, r4
   d54d0:	bd38      	pop	{r3, r4, r5, pc}

000d54d2 <_ZN5Print11printNumberEmh>:
  return println(reinterpret_cast<const char*>(str));
}

// Private Methods /////////////////////////////////////////////////////////////

size_t Print::printNumber(unsigned long n, uint8_t base) {
   d54d2:	b530      	push	{r4, r5, lr}
   d54d4:	b08b      	sub	sp, #44	; 0x2c
   d54d6:	460b      	mov	r3, r1
  char buf[8 * sizeof(n) + 1]; // Assumes 8-bit chars plus zero byte.
  char *str = &buf[sizeof(buf) - 1];

  *str = '\0';
   d54d8:	2100      	movs	r1, #0
   d54da:	f88d 1024 	strb.w	r1, [sp, #36]	; 0x24

  // prevent crash if called with base == 1
  if (base < 2) base = 10;
   d54de:	2a01      	cmp	r2, #1
   d54e0:	bf98      	it	ls
   d54e2:	220a      	movls	r2, #10
   d54e4:	f10d 0423 	add.w	r4, sp, #35	; 0x23

  do {
   decltype(n) m = n;
   n /= base;
   d54e8:	fbb3 f5f2 	udiv	r5, r3, r2
   char c = m - base * n;
   d54ec:	fb05 3312 	mls	r3, r5, r2, r3
   d54f0:	f003 03ff 	and.w	r3, r3, #255	; 0xff
   *--str = c < 10 ? c + '0' : c + 'A' - 10;
   d54f4:	2b09      	cmp	r3, #9
   d54f6:	bf94      	ite	ls
   d54f8:	3330      	addls	r3, #48	; 0x30
   d54fa:	3337      	addhi	r3, #55	; 0x37
   d54fc:	b2db      	uxtb	r3, r3
   d54fe:	4621      	mov	r1, r4
   d5500:	f804 3901 	strb.w	r3, [r4], #-1
   d5504:	462b      	mov	r3, r5
  *str = '\0';

  // prevent crash if called with base == 1
  if (base < 2) base = 10;

  do {
   d5506:	2d00      	cmp	r5, #0
   d5508:	d1ee      	bne.n	d54e8 <_ZN5Print11printNumberEmh+0x16>
   n /= base;
   char c = m - base * n;
   *--str = c < 10 ? c + '0' : c + 'A' - 10;
  } while(n);

  return write(str);
   d550a:	f7ff ffc3 	bl	d5494 <_ZN5Print5writeEPKc>
}
   d550e:	b00b      	add	sp, #44	; 0x2c
   d5510:	bd30      	pop	{r4, r5, pc}

000d5512 <_ZN5Print11printf_implEbPKcz>:

  return n;
}

size_t Print::printf_impl(bool newline, const char* format, ...)
{
   d5512:	b40c      	push	{r2, r3}
   d5514:	e92d 43f0 	stmdb	sp!, {r4, r5, r6, r7, r8, r9, lr}
   d5518:	b087      	sub	sp, #28
   d551a:	af00      	add	r7, sp, #0
   d551c:	f107 0438 	add.w	r4, r7, #56	; 0x38
   d5520:	4605      	mov	r5, r0
   d5522:	f854 9b04 	ldr.w	r9, [r4], #4
    const int bufsize = 20;
    char test[bufsize];
    va_list marker;
    va_start(marker, format);
   d5526:	603c      	str	r4, [r7, #0]

  return n;
}

size_t Print::printf_impl(bool newline, const char* format, ...)
{
   d5528:	460e      	mov	r6, r1
    const int bufsize = 20;
    char test[bufsize];
    va_list marker;
    va_start(marker, format);
    size_t n = vsnprintf(test, bufsize, format, marker);
   d552a:	4623      	mov	r3, r4
   d552c:	464a      	mov	r2, r9
   d552e:	2114      	movs	r1, #20
   d5530:	1d38      	adds	r0, r7, #4
   d5532:	f7ff fbbd 	bl	d4cb0 <vsnprintf>
    va_end(marker);

    if (n<bufsize)
   d5536:	2813      	cmp	r0, #19
   d5538:	d805      	bhi.n	d5546 <_ZN5Print11printf_implEbPKcz+0x34>
  return n;
}

size_t Print::print(const char str[])
{
  return write(str);
   d553a:	1d39      	adds	r1, r7, #4
   d553c:	4628      	mov	r0, r5
   d553e:	f7ff ffa9 	bl	d5494 <_ZN5Print5writeEPKc>
   d5542:	4604      	mov	r4, r0
   d5544:	e013      	b.n	d556e <_ZN5Print11printf_implEbPKcz+0x5c>
    {
        n = print(test);
    }
    else
    {
        char bigger[n+1];
   d5546:	f100 0308 	add.w	r3, r0, #8
   d554a:	f023 0307 	bic.w	r3, r3, #7
        va_start(marker, format);
        n = vsnprintf(bigger, n+1, format, marker);
        va_end(marker);
        n = print(bigger);
   d554e:	46e8      	mov	r8, sp
    {
        n = print(test);
    }
    else
    {
        char bigger[n+1];
   d5550:	ebad 0d03 	sub.w	sp, sp, r3
        va_start(marker, format);
        n = vsnprintf(bigger, n+1, format, marker);
   d5554:	1c41      	adds	r1, r0, #1
   d5556:	4623      	mov	r3, r4
   d5558:	464a      	mov	r2, r9
   d555a:	4668      	mov	r0, sp
        n = print(test);
    }
    else
    {
        char bigger[n+1];
        va_start(marker, format);
   d555c:	603c      	str	r4, [r7, #0]
        n = vsnprintf(bigger, n+1, format, marker);
   d555e:	f7ff fba7 	bl	d4cb0 <vsnprintf>
  return n;
}

size_t Print::print(const char str[])
{
  return write(str);
   d5562:	4669      	mov	r1, sp
   d5564:	4628      	mov	r0, r5
   d5566:	f7ff ff95 	bl	d5494 <_ZN5Print5writeEPKc>
   d556a:	4604      	mov	r4, r0
   d556c:	46c5      	mov	sp, r8
        va_start(marker, format);
        n = vsnprintf(bigger, n+1, format, marker);
        va_end(marker);
        n = print(bigger);
    }
    if (newline)
   d556e:	b11e      	cbz	r6, d5578 <_ZN5Print11printf_implEbPKcz+0x66>
        n += println();
   d5570:	4628      	mov	r0, r5
   d5572:	f7ff ffa2 	bl	d54ba <_ZN5Print7printlnEv>
   d5576:	4404      	add	r4, r0
    return n;
}
   d5578:	4620      	mov	r0, r4
   d557a:	371c      	adds	r7, #28
   d557c:	46bd      	mov	sp, r7
   d557e:	e8bd 43f0 	ldmia.w	sp!, {r4, r5, r6, r7, r8, r9, lr}
   d5582:	b002      	add	sp, #8
   d5584:	4770      	bx	lr

000d5586 <_ZN14RecursiveMutexD1Ev>:
    }

    ~RecursiveMutex() {
   d5586:	b510      	push	{r4, lr}
   d5588:	4604      	mov	r4, r0
        dispose();
    }

    void dispose()
    {
        if (handle_) {
   d558a:	6800      	ldr	r0, [r0, #0]
   d558c:	b108      	cbz	r0, d5592 <_ZN14RecursiveMutexD1Ev+0xc>
            os_mutex_recursive_destroy(handle_);
   d558e:	f7ff fad3 	bl	d4b38 <os_mutex_recursive_destroy>
        os_mutex_recursive_create(&handle_);
    }

    ~RecursiveMutex() {
        dispose();
    }
   d5592:	4620      	mov	r0, r4
   d5594:	bd10      	pop	{r4, pc}
	...

000d5598 <_GLOBAL__sub_I__ZN8particle3ble13WiringBleLock6mutex_E>:
BleCharacteristic BleLocalDevice::addCharacteristic(const String& desc, EnumFlags<BleCharacteristicProperty> properties, BleOnDataReceivedCallback callback, void* context) {
    WiringBleLock lk;
    return addCharacteristic(desc.c_str(), properties, callback, context);
}

} /* namespace particle */
   d5598:	b510      	push	{r4, lr}
    /**
     * Creates a shared mutex.
     */
    RecursiveMutex(os_mutex_recursive_t handle) : handle_(handle) {}

    RecursiveMutex() : handle_(nullptr)
   d559a:	4c06      	ldr	r4, [pc, #24]	; (d55b4 <_GLOBAL__sub_I__ZN8particle3ble13WiringBleLock6mutex_E+0x1c>)
   d559c:	2300      	movs	r3, #0
    {
        os_mutex_recursive_create(&handle_);
   d559e:	4620      	mov	r0, r4
    /**
     * Creates a shared mutex.
     */
    RecursiveMutex(os_mutex_recursive_t handle) : handle_(handle) {}

    RecursiveMutex() : handle_(nullptr)
   d55a0:	6023      	str	r3, [r4, #0]
    {
        os_mutex_recursive_create(&handle_);
   d55a2:	f7ff fac1 	bl	d4b28 <os_mutex_recursive_create>
private:
    bool locked_;
    static RecursiveMutex mutex_;
};

RecursiveMutex WiringBleLock::mutex_;
   d55a6:	4620      	mov	r0, r4
   d55a8:	4a03      	ldr	r2, [pc, #12]	; (d55b8 <_GLOBAL__sub_I__ZN8particle3ble13WiringBleLock6mutex_E+0x20>)
   d55aa:	4904      	ldr	r1, [pc, #16]	; (d55bc <_GLOBAL__sub_I__ZN8particle3ble13WiringBleLock6mutex_E+0x24>)
BleCharacteristic BleLocalDevice::addCharacteristic(const String& desc, EnumFlags<BleCharacteristicProperty> properties, BleOnDataReceivedCallback callback, void* context) {
    WiringBleLock lk;
    return addCharacteristic(desc.c_str(), properties, callback, context);
}

} /* namespace particle */
   d55ac:	e8bd 4010 	ldmia.w	sp!, {r4, lr}
private:
    bool locked_;
    static RecursiveMutex mutex_;
};

RecursiveMutex WiringBleLock::mutex_;
   d55b0:	f000 b86e 	b.w	d5690 <__aeabi_atexit>
   d55b4:	2003e730 	.word	0x2003e730
   d55b8:	2003dd8c 	.word	0x2003dd8c
   d55bc:	000d5587 	.word	0x000d5587

000d55c0 <_ZN17SystemSleepResult22freeWakeupSourceMemoryEv.isra.2>:
    operator SleepResult() {
        return toSleepResult();
    }

private:
    void freeWakeupSourceMemory() {
   d55c0:	b510      	push	{r4, lr}
   d55c2:	4604      	mov	r4, r0
        if (wakeupSource_) {
   d55c4:	6800      	ldr	r0, [r0, #0]
   d55c6:	b118      	cbz	r0, d55d0 <_ZN17SystemSleepResult22freeWakeupSourceMemoryEv.isra.2+0x10>
            free(wakeupSource_);
   d55c8:	f7ff fb6a 	bl	d4ca0 <free>
            wakeupSource_ = nullptr;
   d55cc:	2300      	movs	r3, #0
   d55ce:	6023      	str	r3, [r4, #0]
   d55d0:	bd10      	pop	{r4, pc}

000d55d2 <_ZN11SystemClassD1Ev>:
    system_error_t error_;
    SleepResult compatResult_;
};


class SystemClass {
   d55d2:	b510      	push	{r4, lr}
   d55d4:	4604      	mov	r4, r0
        }
        return *this;
    }

    ~SystemSleepResult() {
        freeWakeupSourceMemory();
   d55d6:	f7ff fff3 	bl	d55c0 <_ZN17SystemSleepResult22freeWakeupSourceMemoryEv.isra.2>
    system_error_t error_;
    SleepResult compatResult_;
};


class SystemClass {
   d55da:	4620      	mov	r0, r4
   d55dc:	bd10      	pop	{r4, pc}
	...

000d55e0 <_GLOBAL__sub_I_System>:
    return wokenUpByRtc();
}

system_error_t SleepResult::error() const {
    return err_;
   d55e0:	b510      	push	{r4, lr}

class SystemSleepResult {
public:
    SystemSleepResult()
            : wakeupSource_(nullptr),
              error_(SYSTEM_ERROR_NONE) {
   d55e2:	4c09      	ldr	r4, [pc, #36]	; (d5608 <_GLOBAL__sub_I_System+0x28>)
   d55e4:	2000      	movs	r0, #0
    WAKEUP_REASON_PIN_OR_RTC = 3,
    WAKEUP_REASON_UNKNOWN = 4
};

struct SleepResult {
    SleepResult() {}
   d55e6:	f64f 73ff 	movw	r3, #65535	; 0xffff

class SystemSleepResult {
public:
    SystemSleepResult()
            : wakeupSource_(nullptr),
              error_(SYSTEM_ERROR_NONE) {
   d55ea:	6020      	str	r0, [r4, #0]
   d55ec:	80a0      	strh	r0, [r4, #4]
    WAKEUP_REASON_PIN_OR_RTC = 3,
    WAKEUP_REASON_UNKNOWN = 4
};

struct SleepResult {
    SleepResult() {}
   d55ee:	71a0      	strb	r0, [r4, #6]
   d55f0:	8120      	strh	r0, [r4, #8]
   d55f2:	8163      	strh	r3, [r4, #10]

class SystemClass {
public:

    SystemClass(System_Mode_TypeDef mode = DEFAULT) {
        set_system_mode(mode);
   d55f4:	f7ff fb28 	bl	d4c48 <set_system_mode>

#if Wiring_LogConfig
extern void(*log_process_ctrl_request_callback)(ctrl_request* req);
#endif

SystemClass System;
   d55f8:	4620      	mov	r0, r4
   d55fa:	4a04      	ldr	r2, [pc, #16]	; (d560c <_GLOBAL__sub_I_System+0x2c>)
   d55fc:	4904      	ldr	r1, [pc, #16]	; (d5610 <_GLOBAL__sub_I_System+0x30>)
    return wokenUpByRtc();
}

system_error_t SleepResult::error() const {
    return err_;
   d55fe:	e8bd 4010 	ldmia.w	sp!, {r4, lr}

#if Wiring_LogConfig
extern void(*log_process_ctrl_request_callback)(ctrl_request* req);
#endif

SystemClass System;
   d5602:	f000 b845 	b.w	d5690 <__aeabi_atexit>
   d5606:	bf00      	nop
   d5608:	2003e734 	.word	0x2003e734
   d560c:	2003dd8c 	.word	0x2003dd8c
   d5610:	000d55d3 	.word	0x000d55d3

000d5614 <_ZN5spark13EthernetClass9listeningEv>:
    uint16_t getListenTimeout(void) {
        return network_get_listen_timeout(*this, 0, NULL);
    }

    bool listening(void) {
        return network_listening(*this, 0, NULL);
   d5614:	2200      	movs	r2, #0
   d5616:	4611      	mov	r1, r2
   d5618:	6840      	ldr	r0, [r0, #4]
   d561a:	f7ff bafd 	b.w	d4c18 <network_listening>

000d561e <_ZN5spark13EthernetClass16getListenTimeoutEv>:
    void setListenTimeout(uint16_t timeout) {
        network_set_listen_timeout(*this, timeout, NULL);
    }

    uint16_t getListenTimeout(void) {
        return network_get_listen_timeout(*this, 0, NULL);
   d561e:	2200      	movs	r2, #0
   d5620:	4611      	mov	r1, r2
   d5622:	6840      	ldr	r0, [r0, #4]
   d5624:	f7ff bb08 	b.w	d4c38 <network_get_listen_timeout>

000d5628 <_ZN5spark13EthernetClass16setListenTimeoutEt>:
    void listen(bool begin=true) {
        network_listen(*this, begin ? 0 : 1, NULL);
    }

    void setListenTimeout(uint16_t timeout) {
        network_set_listen_timeout(*this, timeout, NULL);
   d5628:	2200      	movs	r2, #0
   d562a:	6840      	ldr	r0, [r0, #4]
   d562c:	f7ff bafc 	b.w	d4c28 <network_set_listen_timeout>

000d5630 <_ZN5spark13EthernetClass6listenEb>:
    void disconnect() {
        network_disconnect(*this, NETWORK_DISCONNECT_REASON_USER, NULL);
    }

    void listen(bool begin=true) {
        network_listen(*this, begin ? 0 : 1, NULL);
   d5630:	2200      	movs	r2, #0
   d5632:	f081 0101 	eor.w	r1, r1, #1
   d5636:	6840      	ldr	r0, [r0, #4]
   d5638:	f7ff bae6 	b.w	d4c08 <network_listen>

000d563c <_ZN5spark13EthernetClass3offEv>:
    void on() {
        network_on(*this, 0, 0, NULL);
    }

    void off() {
        network_off(*this, 0, 0, NULL);
   d563c:	2300      	movs	r3, #0
   d563e:	461a      	mov	r2, r3
   d5640:	4619      	mov	r1, r3
   d5642:	6840      	ldr	r0, [r0, #4]
   d5644:	f7ff bad8 	b.w	d4bf8 <network_off>

000d5648 <_ZN5spark13EthernetClass2onEv>:
    EthernetClass() :
            NetworkClass(NETWORK_INTERFACE_ETHERNET) {
    }

    void on() {
        network_on(*this, 0, 0, NULL);
   d5648:	2300      	movs	r3, #0
   d564a:	461a      	mov	r2, r3
   d564c:	4619      	mov	r1, r3
   d564e:	6840      	ldr	r0, [r0, #4]
   d5650:	f7ff baca 	b.w	d4be8 <network_on>

000d5654 <_ZN5spark13EthernetClass5readyEv>:
    bool listening(void) {
        return network_listening(*this, 0, NULL);
    }

    bool ready() {
        return network_ready(*this, 0,  NULL);
   d5654:	2200      	movs	r2, #0
   d5656:	4611      	mov	r1, r2
   d5658:	6840      	ldr	r0, [r0, #4]
   d565a:	f7ff babd 	b.w	d4bd8 <network_ready>

000d565e <_ZN5spark13EthernetClass10connectingEv>:
    void connect(unsigned flags=0) {
        network_connect(*this, flags, 0, NULL);
    }

    bool connecting(void) {
        return network_connecting(*this, 0, NULL);
   d565e:	2200      	movs	r2, #0
   d5660:	4611      	mov	r1, r2
   d5662:	6840      	ldr	r0, [r0, #4]
   d5664:	f7ff baa8 	b.w	d4bb8 <network_connecting>

000d5668 <_ZN5spark13EthernetClass10disconnectEv>:
    }

    void disconnect() {
        network_disconnect(*this, NETWORK_DISCONNECT_REASON_USER, NULL);
   d5668:	2200      	movs	r2, #0
   d566a:	2102      	movs	r1, #2
   d566c:	6840      	ldr	r0, [r0, #4]
   d566e:	f7ff baab 	b.w	d4bc8 <network_disconnect>

000d5672 <_ZN5spark13EthernetClass7connectEj>:
    void off() {
        network_off(*this, 0, 0, NULL);
    }

    void connect(unsigned flags=0) {
        network_connect(*this, flags, 0, NULL);
   d5672:	2300      	movs	r3, #0
   d5674:	461a      	mov	r2, r3
   d5676:	6840      	ldr	r0, [r0, #4]
   d5678:	f7ff ba96 	b.w	d4ba8 <network_connect>

000d567c <_GLOBAL__sub_I__ZN5spark8EthernetE>:
   d567c:	4b02      	ldr	r3, [pc, #8]	; (d5688 <_GLOBAL__sub_I__ZN5spark8EthernetE+0xc>)
   d567e:	2203      	movs	r2, #3
   d5680:	605a      	str	r2, [r3, #4]
    }

class EthernetClass : public NetworkClass {
public:
    EthernetClass() :
            NetworkClass(NETWORK_INTERFACE_ETHERNET) {
   d5682:	4a02      	ldr	r2, [pc, #8]	; (d568c <_GLOBAL__sub_I__ZN5spark8EthernetE+0x10>)
   d5684:	601a      	str	r2, [r3, #0]
   d5686:	4770      	bx	lr
   d5688:	2003e740 	.word	0x2003e740
   d568c:	000d5c68 	.word	0x000d5c68

000d5690 <__aeabi_atexit>:
   d5690:	460b      	mov	r3, r1
   d5692:	4601      	mov	r1, r0
   d5694:	4618      	mov	r0, r3
   d5696:	f000 b94b 	b.w	d5930 <__cxa_atexit>

000d569a <_ZdlPvj>:
   d569a:	f7fe bcfc 	b.w	d4096 <_ZdlPv>
	...

000d56a0 <_GLOBAL__sub_I__ZNSt12ctype_bynameIcEC2ERKNSt7__cxx1112basic_stringIcSt11char_traitsIcESaIcEEEj>:
   d56a0:	4b18      	ldr	r3, [pc, #96]	; (d5704 <_GLOBAL__sub_I__ZNSt12ctype_bynameIcEC2ERKNSt7__cxx1112basic_stringIcSt11char_traitsIcESaIcEEEj+0x64>)
   d56a2:	681a      	ldr	r2, [r3, #0]
   d56a4:	07d1      	lsls	r1, r2, #31
   d56a6:	bf5c      	itt	pl
   d56a8:	2201      	movpl	r2, #1
   d56aa:	601a      	strpl	r2, [r3, #0]
   d56ac:	4b16      	ldr	r3, [pc, #88]	; (d5708 <_GLOBAL__sub_I__ZNSt12ctype_bynameIcEC2ERKNSt7__cxx1112basic_stringIcSt11char_traitsIcESaIcEEEj+0x68>)
   d56ae:	681a      	ldr	r2, [r3, #0]
   d56b0:	07d2      	lsls	r2, r2, #31
   d56b2:	bf5c      	itt	pl
   d56b4:	2201      	movpl	r2, #1
   d56b6:	601a      	strpl	r2, [r3, #0]
   d56b8:	4b14      	ldr	r3, [pc, #80]	; (d570c <_GLOBAL__sub_I__ZNSt12ctype_bynameIcEC2ERKNSt7__cxx1112basic_stringIcSt11char_traitsIcESaIcEEEj+0x6c>)
   d56ba:	681a      	ldr	r2, [r3, #0]
   d56bc:	07d0      	lsls	r0, r2, #31
   d56be:	bf5c      	itt	pl
   d56c0:	2201      	movpl	r2, #1
   d56c2:	601a      	strpl	r2, [r3, #0]
   d56c4:	4b12      	ldr	r3, [pc, #72]	; (d5710 <_GLOBAL__sub_I__ZNSt12ctype_bynameIcEC2ERKNSt7__cxx1112basic_stringIcSt11char_traitsIcESaIcEEEj+0x70>)
   d56c6:	681a      	ldr	r2, [r3, #0]
   d56c8:	07d1      	lsls	r1, r2, #31
   d56ca:	bf5c      	itt	pl
   d56cc:	2201      	movpl	r2, #1
   d56ce:	601a      	strpl	r2, [r3, #0]
   d56d0:	4b10      	ldr	r3, [pc, #64]	; (d5714 <_GLOBAL__sub_I__ZNSt12ctype_bynameIcEC2ERKNSt7__cxx1112basic_stringIcSt11char_traitsIcESaIcEEEj+0x74>)
   d56d2:	681a      	ldr	r2, [r3, #0]
   d56d4:	07d2      	lsls	r2, r2, #31
   d56d6:	bf5c      	itt	pl
   d56d8:	2201      	movpl	r2, #1
   d56da:	601a      	strpl	r2, [r3, #0]
   d56dc:	4b0e      	ldr	r3, [pc, #56]	; (d5718 <_GLOBAL__sub_I__ZNSt12ctype_bynameIcEC2ERKNSt7__cxx1112basic_stringIcSt11char_traitsIcESaIcEEEj+0x78>)
   d56de:	681a      	ldr	r2, [r3, #0]
   d56e0:	07d0      	lsls	r0, r2, #31
   d56e2:	bf5c      	itt	pl
   d56e4:	2201      	movpl	r2, #1
   d56e6:	601a      	strpl	r2, [r3, #0]
   d56e8:	4b0c      	ldr	r3, [pc, #48]	; (d571c <_GLOBAL__sub_I__ZNSt12ctype_bynameIcEC2ERKNSt7__cxx1112basic_stringIcSt11char_traitsIcESaIcEEEj+0x7c>)
   d56ea:	681a      	ldr	r2, [r3, #0]
   d56ec:	07d1      	lsls	r1, r2, #31
   d56ee:	bf5c      	itt	pl
   d56f0:	2201      	movpl	r2, #1
   d56f2:	601a      	strpl	r2, [r3, #0]
   d56f4:	4b0a      	ldr	r3, [pc, #40]	; (d5720 <_GLOBAL__sub_I__ZNSt12ctype_bynameIcEC2ERKNSt7__cxx1112basic_stringIcSt11char_traitsIcESaIcEEEj+0x80>)
   d56f6:	681a      	ldr	r2, [r3, #0]
   d56f8:	07d2      	lsls	r2, r2, #31
   d56fa:	bf5c      	itt	pl
   d56fc:	2201      	movpl	r2, #1
   d56fe:	601a      	strpl	r2, [r3, #0]
   d5700:	4770      	bx	lr
   d5702:	bf00      	nop
   d5704:	2003e768 	.word	0x2003e768
   d5708:	2003e764 	.word	0x2003e764
   d570c:	2003e760 	.word	0x2003e760
   d5710:	2003e75c 	.word	0x2003e75c
   d5714:	2003e758 	.word	0x2003e758
   d5718:	2003e754 	.word	0x2003e754
   d571c:	2003e750 	.word	0x2003e750
   d5720:	2003e74c 	.word	0x2003e74c

000d5724 <_GLOBAL__sub_I__ZNSt12ctype_bynameIwEC2ERKSsj>:
   d5724:	4b24      	ldr	r3, [pc, #144]	; (d57b8 <_GLOBAL__sub_I__ZNSt12ctype_bynameIwEC2ERKSsj+0x94>)
   d5726:	681a      	ldr	r2, [r3, #0]
   d5728:	07d0      	lsls	r0, r2, #31
   d572a:	bf5c      	itt	pl
   d572c:	2201      	movpl	r2, #1
   d572e:	601a      	strpl	r2, [r3, #0]
   d5730:	4b22      	ldr	r3, [pc, #136]	; (d57bc <_GLOBAL__sub_I__ZNSt12ctype_bynameIwEC2ERKSsj+0x98>)
   d5732:	681a      	ldr	r2, [r3, #0]
   d5734:	07d1      	lsls	r1, r2, #31
   d5736:	bf5c      	itt	pl
   d5738:	2201      	movpl	r2, #1
   d573a:	601a      	strpl	r2, [r3, #0]
   d573c:	4b20      	ldr	r3, [pc, #128]	; (d57c0 <_GLOBAL__sub_I__ZNSt12ctype_bynameIwEC2ERKSsj+0x9c>)
   d573e:	681a      	ldr	r2, [r3, #0]
   d5740:	07d2      	lsls	r2, r2, #31
   d5742:	bf5c      	itt	pl
   d5744:	2201      	movpl	r2, #1
   d5746:	601a      	strpl	r2, [r3, #0]
   d5748:	4b1e      	ldr	r3, [pc, #120]	; (d57c4 <_GLOBAL__sub_I__ZNSt12ctype_bynameIwEC2ERKSsj+0xa0>)
   d574a:	681a      	ldr	r2, [r3, #0]
   d574c:	07d0      	lsls	r0, r2, #31
   d574e:	bf5c      	itt	pl
   d5750:	2201      	movpl	r2, #1
   d5752:	601a      	strpl	r2, [r3, #0]
   d5754:	4b1c      	ldr	r3, [pc, #112]	; (d57c8 <_GLOBAL__sub_I__ZNSt12ctype_bynameIwEC2ERKSsj+0xa4>)
   d5756:	681a      	ldr	r2, [r3, #0]
   d5758:	07d1      	lsls	r1, r2, #31
   d575a:	bf5c      	itt	pl
   d575c:	2201      	movpl	r2, #1
   d575e:	601a      	strpl	r2, [r3, #0]
   d5760:	4b1a      	ldr	r3, [pc, #104]	; (d57cc <_GLOBAL__sub_I__ZNSt12ctype_bynameIwEC2ERKSsj+0xa8>)
   d5762:	681a      	ldr	r2, [r3, #0]
   d5764:	07d2      	lsls	r2, r2, #31
   d5766:	bf5c      	itt	pl
   d5768:	2201      	movpl	r2, #1
   d576a:	601a      	strpl	r2, [r3, #0]
   d576c:	4b18      	ldr	r3, [pc, #96]	; (d57d0 <_GLOBAL__sub_I__ZNSt12ctype_bynameIwEC2ERKSsj+0xac>)
   d576e:	681a      	ldr	r2, [r3, #0]
   d5770:	07d0      	lsls	r0, r2, #31
   d5772:	bf5c      	itt	pl
   d5774:	2201      	movpl	r2, #1
   d5776:	601a      	strpl	r2, [r3, #0]
   d5778:	4b16      	ldr	r3, [pc, #88]	; (d57d4 <_GLOBAL__sub_I__ZNSt12ctype_bynameIwEC2ERKSsj+0xb0>)
   d577a:	681a      	ldr	r2, [r3, #0]
   d577c:	07d1      	lsls	r1, r2, #31
   d577e:	bf5c      	itt	pl
   d5780:	2201      	movpl	r2, #1
   d5782:	601a      	strpl	r2, [r3, #0]
   d5784:	4b14      	ldr	r3, [pc, #80]	; (d57d8 <_GLOBAL__sub_I__ZNSt12ctype_bynameIwEC2ERKSsj+0xb4>)
   d5786:	681a      	ldr	r2, [r3, #0]
   d5788:	07d2      	lsls	r2, r2, #31
   d578a:	bf5c      	itt	pl
   d578c:	2201      	movpl	r2, #1
   d578e:	601a      	strpl	r2, [r3, #0]
   d5790:	4b12      	ldr	r3, [pc, #72]	; (d57dc <_GLOBAL__sub_I__ZNSt12ctype_bynameIwEC2ERKSsj+0xb8>)
   d5792:	681a      	ldr	r2, [r3, #0]
   d5794:	07d0      	lsls	r0, r2, #31
   d5796:	bf5c      	itt	pl
   d5798:	2201      	movpl	r2, #1
   d579a:	601a      	strpl	r2, [r3, #0]
   d579c:	4b10      	ldr	r3, [pc, #64]	; (d57e0 <_GLOBAL__sub_I__ZNSt12ctype_bynameIwEC2ERKSsj+0xbc>)
   d579e:	681a      	ldr	r2, [r3, #0]
   d57a0:	07d1      	lsls	r1, r2, #31
   d57a2:	bf5c      	itt	pl
   d57a4:	2201      	movpl	r2, #1
   d57a6:	601a      	strpl	r2, [r3, #0]
   d57a8:	4b0e      	ldr	r3, [pc, #56]	; (d57e4 <_GLOBAL__sub_I__ZNSt12ctype_bynameIwEC2ERKSsj+0xc0>)
   d57aa:	681a      	ldr	r2, [r3, #0]
   d57ac:	07d2      	lsls	r2, r2, #31
   d57ae:	bf5c      	itt	pl
   d57b0:	2201      	movpl	r2, #1
   d57b2:	601a      	strpl	r2, [r3, #0]
   d57b4:	4770      	bx	lr
   d57b6:	bf00      	nop
   d57b8:	2003e798 	.word	0x2003e798
   d57bc:	2003e794 	.word	0x2003e794
   d57c0:	2003e790 	.word	0x2003e790
   d57c4:	2003e78c 	.word	0x2003e78c
   d57c8:	2003e788 	.word	0x2003e788
   d57cc:	2003e784 	.word	0x2003e784
   d57d0:	2003e780 	.word	0x2003e780
   d57d4:	2003e77c 	.word	0x2003e77c
   d57d8:	2003e778 	.word	0x2003e778
   d57dc:	2003e774 	.word	0x2003e774
   d57e0:	2003e770 	.word	0x2003e770
   d57e4:	2003e76c 	.word	0x2003e76c

000d57e8 <_GLOBAL__sub_I__ZNSt12ctype_bynameIcEC2ERKSsj>:
   d57e8:	4b24      	ldr	r3, [pc, #144]	; (d587c <_GLOBAL__sub_I__ZNSt12ctype_bynameIcEC2ERKSsj+0x94>)
   d57ea:	681a      	ldr	r2, [r3, #0]
   d57ec:	07d0      	lsls	r0, r2, #31
   d57ee:	bf5c      	itt	pl
   d57f0:	2201      	movpl	r2, #1
   d57f2:	601a      	strpl	r2, [r3, #0]
   d57f4:	4b22      	ldr	r3, [pc, #136]	; (d5880 <_GLOBAL__sub_I__ZNSt12ctype_bynameIcEC2ERKSsj+0x98>)
   d57f6:	681a      	ldr	r2, [r3, #0]
   d57f8:	07d1      	lsls	r1, r2, #31
   d57fa:	bf5c      	itt	pl
   d57fc:	2201      	movpl	r2, #1
   d57fe:	601a      	strpl	r2, [r3, #0]
   d5800:	4b20      	ldr	r3, [pc, #128]	; (d5884 <_GLOBAL__sub_I__ZNSt12ctype_bynameIcEC2ERKSsj+0x9c>)
   d5802:	681a      	ldr	r2, [r3, #0]
   d5804:	07d2      	lsls	r2, r2, #31
   d5806:	bf5c      	itt	pl
   d5808:	2201      	movpl	r2, #1
   d580a:	601a      	strpl	r2, [r3, #0]
   d580c:	4b1e      	ldr	r3, [pc, #120]	; (d5888 <_GLOBAL__sub_I__ZNSt12ctype_bynameIcEC2ERKSsj+0xa0>)
   d580e:	681a      	ldr	r2, [r3, #0]
   d5810:	07d0      	lsls	r0, r2, #31
   d5812:	bf5c      	itt	pl
   d5814:	2201      	movpl	r2, #1
   d5816:	601a      	strpl	r2, [r3, #0]
   d5818:	4b1c      	ldr	r3, [pc, #112]	; (d588c <_GLOBAL__sub_I__ZNSt12ctype_bynameIcEC2ERKSsj+0xa4>)
   d581a:	681a      	ldr	r2, [r3, #0]
   d581c:	07d1      	lsls	r1, r2, #31
   d581e:	bf5c      	itt	pl
   d5820:	2201      	movpl	r2, #1
   d5822:	601a      	strpl	r2, [r3, #0]
   d5824:	4b1a      	ldr	r3, [pc, #104]	; (d5890 <_GLOBAL__sub_I__ZNSt12ctype_bynameIcEC2ERKSsj+0xa8>)
   d5826:	681a      	ldr	r2, [r3, #0]
   d5828:	07d2      	lsls	r2, r2, #31
   d582a:	bf5c      	itt	pl
   d582c:	2201      	movpl	r2, #1
   d582e:	601a      	strpl	r2, [r3, #0]
   d5830:	4b18      	ldr	r3, [pc, #96]	; (d5894 <_GLOBAL__sub_I__ZNSt12ctype_bynameIcEC2ERKSsj+0xac>)
   d5832:	681a      	ldr	r2, [r3, #0]
   d5834:	07d0      	lsls	r0, r2, #31
   d5836:	bf5c      	itt	pl
   d5838:	2201      	movpl	r2, #1
   d583a:	601a      	strpl	r2, [r3, #0]
   d583c:	4b16      	ldr	r3, [pc, #88]	; (d5898 <_GLOBAL__sub_I__ZNSt12ctype_bynameIcEC2ERKSsj+0xb0>)
   d583e:	681a      	ldr	r2, [r3, #0]
   d5840:	07d1      	lsls	r1, r2, #31
   d5842:	bf5c      	itt	pl
   d5844:	2201      	movpl	r2, #1
   d5846:	601a      	strpl	r2, [r3, #0]
   d5848:	4b14      	ldr	r3, [pc, #80]	; (d589c <_GLOBAL__sub_I__ZNSt12ctype_bynameIcEC2ERKSsj+0xb4>)
   d584a:	681a      	ldr	r2, [r3, #0]
   d584c:	07d2      	lsls	r2, r2, #31
   d584e:	bf5c      	itt	pl
   d5850:	2201      	movpl	r2, #1
   d5852:	601a      	strpl	r2, [r3, #0]
   d5854:	4b12      	ldr	r3, [pc, #72]	; (d58a0 <_GLOBAL__sub_I__ZNSt12ctype_bynameIcEC2ERKSsj+0xb8>)
   d5856:	681a      	ldr	r2, [r3, #0]
   d5858:	07d0      	lsls	r0, r2, #31
   d585a:	bf5c      	itt	pl
   d585c:	2201      	movpl	r2, #1
   d585e:	601a      	strpl	r2, [r3, #0]
   d5860:	4b10      	ldr	r3, [pc, #64]	; (d58a4 <_GLOBAL__sub_I__ZNSt12ctype_bynameIcEC2ERKSsj+0xbc>)
   d5862:	681a      	ldr	r2, [r3, #0]
   d5864:	07d1      	lsls	r1, r2, #31
   d5866:	bf5c      	itt	pl
   d5868:	2201      	movpl	r2, #1
   d586a:	601a      	strpl	r2, [r3, #0]
   d586c:	4b0e      	ldr	r3, [pc, #56]	; (d58a8 <_GLOBAL__sub_I__ZNSt12ctype_bynameIcEC2ERKSsj+0xc0>)
   d586e:	681a      	ldr	r2, [r3, #0]
   d5870:	07d2      	lsls	r2, r2, #31
   d5872:	bf5c      	itt	pl
   d5874:	2201      	movpl	r2, #1
   d5876:	601a      	strpl	r2, [r3, #0]
   d5878:	4770      	bx	lr
   d587a:	bf00      	nop
   d587c:	2003e7c8 	.word	0x2003e7c8
   d5880:	2003e7c4 	.word	0x2003e7c4
   d5884:	2003e7c0 	.word	0x2003e7c0
   d5888:	2003e7bc 	.word	0x2003e7bc
   d588c:	2003e7b8 	.word	0x2003e7b8
   d5890:	2003e7b4 	.word	0x2003e7b4
   d5894:	2003e7b0 	.word	0x2003e7b0
   d5898:	2003e7ac 	.word	0x2003e7ac
   d589c:	2003e7a8 	.word	0x2003e7a8
   d58a0:	2003e7a4 	.word	0x2003e7a4
   d58a4:	2003e7a0 	.word	0x2003e7a0
   d58a8:	2003e79c 	.word	0x2003e79c

000d58ac <_GLOBAL__sub_I__ZNSt12ctype_bynameIwEC2ERKNSt7__cxx1112basic_stringIcSt11char_traitsIcESaIcEEEj>:
   d58ac:	4b18      	ldr	r3, [pc, #96]	; (d5910 <_GLOBAL__sub_I__ZNSt12ctype_bynameIwEC2ERKNSt7__cxx1112basic_stringIcSt11char_traitsIcESaIcEEEj+0x64>)
   d58ae:	681a      	ldr	r2, [r3, #0]
   d58b0:	07d1      	lsls	r1, r2, #31
   d58b2:	bf5c      	itt	pl
   d58b4:	2201      	movpl	r2, #1
   d58b6:	601a      	strpl	r2, [r3, #0]
   d58b8:	4b16      	ldr	r3, [pc, #88]	; (d5914 <_GLOBAL__sub_I__ZNSt12ctype_bynameIwEC2ERKNSt7__cxx1112basic_stringIcSt11char_traitsIcESaIcEEEj+0x68>)
   d58ba:	681a      	ldr	r2, [r3, #0]
   d58bc:	07d2      	lsls	r2, r2, #31
   d58be:	bf5c      	itt	pl
   d58c0:	2201      	movpl	r2, #1
   d58c2:	601a      	strpl	r2, [r3, #0]
   d58c4:	4b14      	ldr	r3, [pc, #80]	; (d5918 <_GLOBAL__sub_I__ZNSt12ctype_bynameIwEC2ERKNSt7__cxx1112basic_stringIcSt11char_traitsIcESaIcEEEj+0x6c>)
   d58c6:	681a      	ldr	r2, [r3, #0]
   d58c8:	07d0      	lsls	r0, r2, #31
   d58ca:	bf5c      	itt	pl
   d58cc:	2201      	movpl	r2, #1
   d58ce:	601a      	strpl	r2, [r3, #0]
   d58d0:	4b12      	ldr	r3, [pc, #72]	; (d591c <_GLOBAL__sub_I__ZNSt12ctype_bynameIwEC2ERKNSt7__cxx1112basic_stringIcSt11char_traitsIcESaIcEEEj+0x70>)
   d58d2:	681a      	ldr	r2, [r3, #0]
   d58d4:	07d1      	lsls	r1, r2, #31
   d58d6:	bf5c      	itt	pl
   d58d8:	2201      	movpl	r2, #1
   d58da:	601a      	strpl	r2, [r3, #0]
   d58dc:	4b10      	ldr	r3, [pc, #64]	; (d5920 <_GLOBAL__sub_I__ZNSt12ctype_bynameIwEC2ERKNSt7__cxx1112basic_stringIcSt11char_traitsIcESaIcEEEj+0x74>)
   d58de:	681a      	ldr	r2, [r3, #0]
   d58e0:	07d2      	lsls	r2, r2, #31
   d58e2:	bf5c      	itt	pl
   d58e4:	2201      	movpl	r2, #1
   d58e6:	601a      	strpl	r2, [r3, #0]
   d58e8:	4b0e      	ldr	r3, [pc, #56]	; (d5924 <_GLOBAL__sub_I__ZNSt12ctype_bynameIwEC2ERKNSt7__cxx1112basic_stringIcSt11char_traitsIcESaIcEEEj+0x78>)
   d58ea:	681a      	ldr	r2, [r3, #0]
   d58ec:	07d0      	lsls	r0, r2, #31
   d58ee:	bf5c      	itt	pl
   d58f0:	2201      	movpl	r2, #1
   d58f2:	601a      	strpl	r2, [r3, #0]
   d58f4:	4b0c      	ldr	r3, [pc, #48]	; (d5928 <_GLOBAL__sub_I__ZNSt12ctype_bynameIwEC2ERKNSt7__cxx1112basic_stringIcSt11char_traitsIcESaIcEEEj+0x7c>)
   d58f6:	681a      	ldr	r2, [r3, #0]
   d58f8:	07d1      	lsls	r1, r2, #31
   d58fa:	bf5c      	itt	pl
   d58fc:	2201      	movpl	r2, #1
   d58fe:	601a      	strpl	r2, [r3, #0]
   d5900:	4b0a      	ldr	r3, [pc, #40]	; (d592c <_GLOBAL__sub_I__ZNSt12ctype_bynameIwEC2ERKNSt7__cxx1112basic_stringIcSt11char_traitsIcESaIcEEEj+0x80>)
   d5902:	681a      	ldr	r2, [r3, #0]
   d5904:	07d2      	lsls	r2, r2, #31
   d5906:	bf5c      	itt	pl
   d5908:	2201      	movpl	r2, #1
   d590a:	601a      	strpl	r2, [r3, #0]
   d590c:	4770      	bx	lr
   d590e:	bf00      	nop
   d5910:	2003e7e8 	.word	0x2003e7e8
   d5914:	2003e7e4 	.word	0x2003e7e4
   d5918:	2003e7e0 	.word	0x2003e7e0
   d591c:	2003e7dc 	.word	0x2003e7dc
   d5920:	2003e7d8 	.word	0x2003e7d8
   d5924:	2003e7d4 	.word	0x2003e7d4
   d5928:	2003e7d0 	.word	0x2003e7d0
   d592c:	2003e7cc 	.word	0x2003e7cc

000d5930 <__cxa_atexit>:
   d5930:	b510      	push	{r4, lr}
   d5932:	4c05      	ldr	r4, [pc, #20]	; (d5948 <__cxa_atexit+0x18>)
   d5934:	4613      	mov	r3, r2
   d5936:	b12c      	cbz	r4, d5944 <__cxa_atexit+0x14>
   d5938:	460a      	mov	r2, r1
   d593a:	4601      	mov	r1, r0
   d593c:	2002      	movs	r0, #2
   d593e:	f3af 8000 	nop.w
   d5942:	bd10      	pop	{r4, pc}
   d5944:	4620      	mov	r0, r4
   d5946:	bd10      	pop	{r4, pc}
   d5948:	00000000 	.word	0x00000000

000d594c <memcpy>:
   d594c:	b510      	push	{r4, lr}
   d594e:	1e43      	subs	r3, r0, #1
   d5950:	440a      	add	r2, r1
   d5952:	4291      	cmp	r1, r2
   d5954:	d004      	beq.n	d5960 <memcpy+0x14>
   d5956:	f811 4b01 	ldrb.w	r4, [r1], #1
   d595a:	f803 4f01 	strb.w	r4, [r3, #1]!
   d595e:	e7f8      	b.n	d5952 <memcpy+0x6>
   d5960:	bd10      	pop	{r4, pc}

000d5962 <memset>:
   d5962:	4402      	add	r2, r0
   d5964:	4603      	mov	r3, r0
   d5966:	4293      	cmp	r3, r2
   d5968:	d002      	beq.n	d5970 <memset+0xe>
   d596a:	f803 1b01 	strb.w	r1, [r3], #1
   d596e:	e7fa      	b.n	d5966 <memset+0x4>
   d5970:	4770      	bx	lr
	...

000d5974 <srand>:
   d5974:	b538      	push	{r3, r4, r5, lr}
   d5976:	4b12      	ldr	r3, [pc, #72]	; (d59c0 <srand+0x4c>)
   d5978:	681c      	ldr	r4, [r3, #0]
   d597a:	6ba3      	ldr	r3, [r4, #56]	; 0x38
   d597c:	4605      	mov	r5, r0
   d597e:	b9d3      	cbnz	r3, d59b6 <srand+0x42>
   d5980:	2018      	movs	r0, #24
   d5982:	f7ff f985 	bl	d4c90 <malloc>
   d5986:	f243 330e 	movw	r3, #13070	; 0x330e
   d598a:	63a0      	str	r0, [r4, #56]	; 0x38
   d598c:	8003      	strh	r3, [r0, #0]
   d598e:	f64a 33cd 	movw	r3, #43981	; 0xabcd
   d5992:	8043      	strh	r3, [r0, #2]
   d5994:	f241 2334 	movw	r3, #4660	; 0x1234
   d5998:	8083      	strh	r3, [r0, #4]
   d599a:	f24e 636d 	movw	r3, #58989	; 0xe66d
   d599e:	80c3      	strh	r3, [r0, #6]
   d59a0:	f64d 63ec 	movw	r3, #57068	; 0xdeec
   d59a4:	8103      	strh	r3, [r0, #8]
   d59a6:	2305      	movs	r3, #5
   d59a8:	8143      	strh	r3, [r0, #10]
   d59aa:	230b      	movs	r3, #11
   d59ac:	8183      	strh	r3, [r0, #12]
   d59ae:	2201      	movs	r2, #1
   d59b0:	2300      	movs	r3, #0
   d59b2:	e9c0 2304 	strd	r2, r3, [r0, #16]
   d59b6:	6ba3      	ldr	r3, [r4, #56]	; 0x38
   d59b8:	2200      	movs	r2, #0
   d59ba:	611d      	str	r5, [r3, #16]
   d59bc:	615a      	str	r2, [r3, #20]
   d59be:	bd38      	pop	{r3, r4, r5, pc}
   d59c0:	2003dd88 	.word	0x2003dd88

000d59c4 <strlen>:
   d59c4:	4603      	mov	r3, r0
   d59c6:	f813 2b01 	ldrb.w	r2, [r3], #1
   d59ca:	2a00      	cmp	r2, #0
   d59cc:	d1fb      	bne.n	d59c6 <strlen+0x2>
   d59ce:	1a18      	subs	r0, r3, r0
   d59d0:	3801      	subs	r0, #1
   d59d2:	4770      	bx	lr

000d59d4 <dynalib_user>:
   d59d4:	401d 000d 4059 000d 4085 000d 4089 000d     .@..Y@...@...@..
   d59e4:	0000 0000 6144 2074 756e 626d 7265 2520     ....Dat number %
   d59f4:	0064 7453 7261 0074 6552 6967 7473 7265     d.Start.Register
   d5a04:	6e69 2067 7566 636e 6974 6e6f 0073 6946     ing functions.Fi
   d5a14:	7372 2074 6f64 656e 0020 4e49 5449 4420     rst done .INIT D
   d5a24:	4e4f 0045 4242 4d56 5320 4154 5452 4445     ONE.BBVM STARTED
   d5a34:	3a20 2044 4400 5645 4349 2045 5243 5341      :D .DEVICE CRAS
   d5a44:	4548 0044                                   HED.

000d5a48 <_ZTVN5spark12NetworkClassE>:
	...
   d5a50:	4cc1 000d 4ccb 000d 4cd5 000d 4cdf 000d     .L...L...L...L..
   d5a60:	4ce9 000d 4cf5 000d 4d01 000d 4d0d 000d     .L...L...M...M..
   d5a70:	4d15 000d 4d1f 000d 4d29 000d               .M...M..)M..

000d5a7c <_ZTVN5spark9WiFiClassE>:
	...
   d5a84:	4e67 000d 4e5d 000d 4e53 000d 4e09 000d     gN..]N..SN...N..
   d5a94:	4e47 000d 4e3b 000d 4e2f 000d 4e27 000d     GN..;N../N..'N..
   d5aa4:	4e1d 000d 4e13 000d 4d29 000d               .N...N..)M..

000d5ab0 <_ZTVN5spark9MeshClassE>:
	...
   d5ab8:	4ee3 000d 4ed9 000d 4ecf 000d 4ec5 000d     .N...N...N...N..
   d5ac8:	4eb9 000d 4ead 000d 4ea1 000d 4e99 000d     .N...N...N...N..
   d5ad8:	4e8f 000d 4e85 000d 4d29 000d               .N...N..)M..

000d5ae4 <_ZTV11USARTSerial>:
	...
   d5aec:	5001 000d 5051 000d 505f 000d 5469 000d     .P..QP.._P..iT..
   d5afc:	5015 000d 5037 000d 5023 000d 504b 000d     .P..7P..#P..KP..
   d5b0c:	5003 000d 5007 000d                         .P...P..

000d5b14 <_ZTV9USBSerial>:
	...
   d5b1c:	5113 000d 5163 000d 5171 000d 5469 000d     .Q..cQ..qQ..iT..
   d5b2c:	514f 000d 5115 000d 512b 000d 515d 000d     OQ...Q..+Q..]Q..
   d5b3c:	5141 000d 510f 000d                         AQ...Q..

000d5b44 <_ZTV9IPAddress>:
	...
   d5b4c:	5231 000d 5221 000d 5223 000d 005a 2b25     1R..!R..#R..Z.%+
   d5b5c:	3330 3a64 3025 7532 2500 2d59 6d25 252d     03d:%02u.%Y-%m-%
   d5b6c:	5464 4825 253a 3a4d 5325 7a25 6100 6373     dT%H:%M:%S%z.asc
   d5b7c:	6974 656d 6200 7561 0064 6553 6972 6c61     time.baud.Serial
   d5b8c:	5300 7265 6169 316c 7400 7079 0065 6170     .Serial1.type.pa
   d5b9c:	6172 006d 6d63 0064 6469 6800 646e 7300     ram.cmd.id.hnd.s
   d5bac:	7274 006d 6966 746c 6c00 6c76 6100 6464     trm.filt.lvl.add
   d5bbc:	6148 646e 656c 0072 6572 6f6d 6576 6148     Handler.removeHa
   d5bcc:	646e 656c 0072 6e65 6d75 6148 646e 656c     ndler.enumHandle
   d5bdc:	7372 4a00 4f53 534e 7274 6165 4c6d 676f     rs.JSONStreamLog
   d5bec:	6148 646e 656c 0072 7061 0070 3025 3031     Handler.app.%010
   d5bfc:	2075 5d00 0020 202c 2800 3a29 0020 5b20     u .] ., .(): . [
   d5c0c:	6300 646f 2065 203d 2500 0069 6564 6174     .code = .%i.deta
   d5c1c:	6c69 2073 203d 0d00 000a 0066 6e6c 6600     ils = ....f.ln.f
   d5c2c:	006e 6f63 6564 6400 7465 6961 006c 6f6e     n.code.detail.no
   d5c3c:	656e 7400 6172 6563 6900 666e 006f 6177     ne.trace.info.wa
   d5c4c:	6e72 6500 7272 726f 7000 6e61 6369 6100     rn.error.panic.a
   d5c5c:	6c6c 0000                                   ll..

000d5c60 <_ZTVN5spark13EthernetClassE>:
	...
   d5c68:	5673 000d 5669 000d 565f 000d 5655 000d     sV..iV.._V..UV..
   d5c78:	5649 000d 563d 000d 5631 000d 5629 000d     IV..=V..1V..)V..
   d5c88:	561f 000d 5615 000d 4d29 000d               .V...V..)M..

000d5c94 <__sf_fake_stdin>:
	...

000d5cb4 <__sf_fake_stdout>:
	...

000d5cd4 <__sf_fake_stderr>:
	...
   d5cf4:	0043                                        C.

000d5cf6 <link_const_variable_data_end>:
	...

000d5cf8 <link_constructors_location>:
   d5cf8:	000d49dd 	.word	0x000d49dd
   d5cfc:	000d49e1 	.word	0x000d49e1
   d5d00:	000d4a05 	.word	0x000d4a05
   d5d04:	000d4df5 	.word	0x000d4df5
   d5d08:	000d4e71 	.word	0x000d4e71
   d5d0c:	000d4fb1 	.word	0x000d4fb1
   d5d10:	000d5421 	.word	0x000d5421
   d5d14:	000d5445 	.word	0x000d5445
   d5d18:	000d5459 	.word	0x000d5459
   d5d1c:	000d5599 	.word	0x000d5599
   d5d20:	000d55e1 	.word	0x000d55e1
   d5d24:	000d567d 	.word	0x000d567d
   d5d28:	000d56a1 	.word	0x000d56a1
   d5d2c:	000d5725 	.word	0x000d5725
   d5d30:	000d57e9 	.word	0x000d57e9
   d5d34:	000d58ad 	.word	0x000d58ad

000d5d38 <link_constructors_end>:
	...
